	; Module start
	.compiler_version	"TASKING VX-toolset for TriCore: C compiler v6.2r2 Build 19053136 SN 09001910"
	.compiler_invocation	"ctc -f cc17212a -c99 --integer-enumeration -D__CPU__=tc27x -D__CPU_TC27X__ --core=tc1.6.x --eabi-compliant --fp-model=-float -D_TASKING_C_TRICORE_=1 -I.\\output\\inc -g2 -t4 --language=-comments,-gcc,+volatile,-strings --default-near-size=0 -O2ROPYGKLF-predict --default-a1-size=0 --default-a0-size=0 --source --switch=auto -o output\\objs\\BSW\\src\\BSW\\Gen\\Rba_FeeFs1\\rba_FeeFs1_Cbk.src BSW\\src\\BSW\\Gen\\Rba_FeeFs1\\src\\rba_FeeFs1_Cbk.c"
	.compiler_name		"ctc"
	;source	'BSW\\src\\BSW\\Gen\\Rba_FeeFs1\\src\\rba_FeeFs1_Cbk.c'

	
$TC16X
	
	.sdecl	'.text.rba_FeeFs1_Cbk.Fee_SwitchJobEndNotification',code,cluster('Fee_SwitchJobEndNotification')
	.sect	'.text.rba_FeeFs1_Cbk.Fee_SwitchJobEndNotification'
	.align	2
	
	.global	Fee_SwitchJobEndNotification

; BSW\src\BSW\Gen\Rba_FeeFs1\src\rba_FeeFs1_Cbk.c	     1  
; BSW\src\BSW\Gen\Rba_FeeFs1\src\rba_FeeFs1_Cbk.c	     2  
; BSW\src\BSW\Gen\Rba_FeeFs1\src\rba_FeeFs1_Cbk.c	     3  
; BSW\src\BSW\Gen\Rba_FeeFs1\src\rba_FeeFs1_Cbk.c	     4  /**
; BSW\src\BSW\Gen\Rba_FeeFs1\src\rba_FeeFs1_Cbk.c	     5   **********************************************************************************************************************
; BSW\src\BSW\Gen\Rba_FeeFs1\src\rba_FeeFs1_Cbk.c	     6   * \moduledescription
; BSW\src\BSW\Gen\Rba_FeeFs1\src\rba_FeeFs1_Cbk.c	     7   *           AUTOSAR FEE
; BSW\src\BSW\Gen\Rba_FeeFs1\src\rba_FeeFs1_Cbk.c	     8   *           According to Document Version 3.0.0, Part of Release 4.0, Revision 2
; BSW\src\BSW\Gen\Rba_FeeFs1\src\rba_FeeFs1_Cbk.c	     9   * \scope    INTERN
; BSW\src\BSW\Gen\Rba_FeeFs1\src\rba_FeeFs1_Cbk.c	    10   **********************************************************************************************************************
; BSW\src\BSW\Gen\Rba_FeeFs1\src\rba_FeeFs1_Cbk.c	    11   */
; BSW\src\BSW\Gen\Rba_FeeFs1\src\rba_FeeFs1_Cbk.c	    12  
; BSW\src\BSW\Gen\Rba_FeeFs1\src\rba_FeeFs1_Cbk.c	    13  
; BSW\src\BSW\Gen\Rba_FeeFs1\src\rba_FeeFs1_Cbk.c	    14  /*
; BSW\src\BSW\Gen\Rba_FeeFs1\src\rba_FeeFs1_Cbk.c	    15   *********************************************************************
; BSW\src\BSW\Gen\Rba_FeeFs1\src\rba_FeeFs1_Cbk.c	    16   * Includes
; BSW\src\BSW\Gen\Rba_FeeFs1\src\rba_FeeFs1_Cbk.c	    17   *********************************************************************
; BSW\src\BSW\Gen\Rba_FeeFs1\src\rba_FeeFs1_Cbk.c	    18   */
; BSW\src\BSW\Gen\Rba_FeeFs1\src\rba_FeeFs1_Cbk.c	    19  #include "Fee.h"
; BSW\src\BSW\Gen\Rba_FeeFs1\src\rba_FeeFs1_Cbk.c	    20  #include "rba_FeeFs1_Cbk.h"
; BSW\src\BSW\Gen\Rba_FeeFs1\src\rba_FeeFs1_Cbk.c	    21  #include "rba_FeeFs1_Prv.h"
; BSW\src\BSW\Gen\Rba_FeeFs1\src\rba_FeeFs1_Cbk.c	    22  
; BSW\src\BSW\Gen\Rba_FeeFs1\src\rba_FeeFs1_Cbk.c	    23  #if(defined(FEE_PRV_CFG_SELECTED_FS) && (1 == FEE_PRV_CFG_SELECTED_FS))
; BSW\src\BSW\Gen\Rba_FeeFs1\src\rba_FeeFs1_Cbk.c	    24  
; BSW\src\BSW\Gen\Rba_FeeFs1\src\rba_FeeFs1_Cbk.c	    25  #if (FEE_PRESENT == 1)
; BSW\src\BSW\Gen\Rba_FeeFs1\src\rba_FeeFs1_Cbk.c	    26  /**
; BSW\src\BSW\Gen\Rba_FeeFs1\src\rba_FeeFs1_Cbk.c	    27   *********************************************************************
; BSW\src\BSW\Gen\Rba_FeeFs1\src\rba_FeeFs1_Cbk.c	    28   * Fee_JobEndNotification(): Service for reporting a successful end
; BSW\src\BSW\Gen\Rba_FeeFs1\src\rba_FeeFs1_Cbk.c	    29   *                           of an asynchronous operation.
; BSW\src\BSW\Gen\Rba_FeeFs1\src\rba_FeeFs1_Cbk.c	    30   *
; BSW\src\BSW\Gen\Rba_FeeFs1\src\rba_FeeFs1_Cbk.c	    31   * This function reports a successful end of an asynchronous
; BSW\src\BSW\Gen\Rba_FeeFs1\src\rba_FeeFs1_Cbk.c	    32   * operation (FEE095). The function call has to be configured in the
; BSW\src\BSW\Gen\Rba_FeeFs1\src\rba_FeeFs1_Cbk.c	    33   * Fls module in order to be called automatically whenever an
; BSW\src\BSW\Gen\Rba_FeeFs1\src\rba_FeeFs1_Cbk.c	    34   * asynchronous operation was finished. Alternatively the
; BSW\src\BSW\Gen\Rba_FeeFs1\src\rba_FeeFs1_Cbk.c	    35   * Fls_GetJobResult() functionality can be used depending on
; BSW\src\BSW\Gen\Rba_FeeFs1\src\rba_FeeFs1_Cbk.c	    36   * "FEE_POLLING_MODE".
; BSW\src\BSW\Gen\Rba_FeeFs1\src\rba_FeeFs1_Cbk.c	    37   *
; BSW\src\BSW\Gen\Rba_FeeFs1\src\rba_FeeFs1_Cbk.c	    38   * Hint:
; BSW\src\BSW\Gen\Rba_FeeFs1\src\rba_FeeFs1_Cbk.c	    39   * Deviation from the AR SWS:
; BSW\src\BSW\Gen\Rba_FeeFs1\src\rba_FeeFs1_Cbk.c	    40   * - Whether a read or write operation is finished cannot be detected
; BSW\src\BSW\Gen\Rba_FeeFs1\src\rba_FeeFs1_Cbk.c	    41   *   within this function (function call can be interrupt level).
; BSW\src\BSW\Gen\Rba_FeeFs1\src\rba_FeeFs1_Cbk.c	    42   *   A finished block will be detected in the Fee_MainFunction.
; BSW\src\BSW\Gen\Rba_FeeFs1\src\rba_FeeFs1_Cbk.c	    43   *   --> FEE052 and FEE142 is realized there
; BSW\src\BSW\Gen\Rba_FeeFs1\src\rba_FeeFs1_Cbk.c	    44   * - FEE052: The function Fee_JobEndNotification shall perform any
; BSW\src\BSW\Gen\Rba_FeeFs1\src\rba_FeeFs1_Cbk.c	    45   *   necessary block management operations and subsequently call
; BSW\src\BSW\Gen\Rba_FeeFs1\src\rba_FeeFs1_Cbk.c	    46   *   the job end notification routine of the upper layer module if
; BSW\src\BSW\Gen\Rba_FeeFs1\src\rba_FeeFs1_Cbk.c	    47   *   configured.
; BSW\src\BSW\Gen\Rba_FeeFs1\src\rba_FeeFs1_Cbk.c	    48   * - FEE142: If the job result is currently MEMIF_JOB_PENDING, the
; BSW\src\BSW\Gen\Rba_FeeFs1\src\rba_FeeFs1_Cbk.c	    49   *   function Fee_JobEndNotification shall set the job result to
; BSW\src\BSW\Gen\Rba_FeeFs1\src\rba_FeeFs1_Cbk.c	    50   *   MEMIF_JOB_OK, else it shall leave the job result untouched.
; BSW\src\BSW\Gen\Rba_FeeFs1\src\rba_FeeFs1_Cbk.c	    51   *
; BSW\src\BSW\Gen\Rba_FeeFs1\src\rba_FeeFs1_Cbk.c	    52   * Note:
; BSW\src\BSW\Gen\Rba_FeeFs1\src\rba_FeeFs1_Cbk.c	    53   * The function Fee_JobEndNotification shall be callable on
; BSW\src\BSW\Gen\Rba_FeeFs1\src\rba_FeeFs1_Cbk.c	    54   * interrupt level.
; BSW\src\BSW\Gen\Rba_FeeFs1\src\rba_FeeFs1_Cbk.c	    55   *
; BSW\src\BSW\Gen\Rba_FeeFs1\src\rba_FeeFs1_Cbk.c	    56   * \param    none
; BSW\src\BSW\Gen\Rba_FeeFs1\src\rba_FeeFs1_Cbk.c	    57   * \return
; BSW\src\BSW\Gen\Rba_FeeFs1\src\rba_FeeFs1_Cbk.c	    58   * \retval   none
; BSW\src\BSW\Gen\Rba_FeeFs1\src\rba_FeeFs1_Cbk.c	    59   * \seealso
; BSW\src\BSW\Gen\Rba_FeeFs1\src\rba_FeeFs1_Cbk.c	    60   * \usedresources
; BSW\src\BSW\Gen\Rba_FeeFs1\src\rba_FeeFs1_Cbk.c	    61   *********************************************************************
; BSW\src\BSW\Gen\Rba_FeeFs1\src\rba_FeeFs1_Cbk.c	    62   */
; BSW\src\BSW\Gen\Rba_FeeFs1\src\rba_FeeFs1_Cbk.c	    63  #if (STD_OFF == FEE_POLLING_MODE)
; BSW\src\BSW\Gen\Rba_FeeFs1\src\rba_FeeFs1_Cbk.c	    64  #define FEE_START_SEC_CODE
; BSW\src\BSW\Gen\Rba_FeeFs1\src\rba_FeeFs1_Cbk.c	    65  #include "Fee_MemMap.h"
; BSW\src\BSW\Gen\Rba_FeeFs1\src\rba_FeeFs1_Cbk.c	    66  FUNC(void, FEE_CODE) Fee_JobEndNotification(void)
; BSW\src\BSW\Gen\Rba_FeeFs1\src\rba_FeeFs1_Cbk.c	    67  #else
; BSW\src\BSW\Gen\Rba_FeeFs1\src\rba_FeeFs1_Cbk.c	    68  #define FEE_START_SEC_CODE
; BSW\src\BSW\Gen\Rba_FeeFs1\src\rba_FeeFs1_Cbk.c	    69  #include "Fee_MemMap.h"
; BSW\src\BSW\Gen\Rba_FeeFs1\src\rba_FeeFs1_Cbk.c	    70  FUNC(void, FEE_CODE) Fee_SwitchJobEndNotification(void)
; Function Fee_SwitchJobEndNotification
.L58:
Fee_SwitchJobEndNotification:	.type	func

; BSW\src\BSW\Gen\Rba_FeeFs1\src\rba_FeeFs1_Cbk.c	    71  #endif
; BSW\src\BSW\Gen\Rba_FeeFs1\src\rba_FeeFs1_Cbk.c	    72  {
; BSW\src\BSW\Gen\Rba_FeeFs1\src\rba_FeeFs1_Cbk.c	    73      /* Switch the read state machine */
; BSW\src\BSW\Gen\Rba_FeeFs1\src\rba_FeeFs1_Cbk.c	    74      if(Fee_RdWrOrder_st.Fee_LLRdState_en == FEE_LL_WAIT_READ_PAGE_E)
	movh.a	a15,#@his(Fee_RdWrOrder_st)
	lea	a15,[a15]@los(Fee_RdWrOrder_st)
.L86:
	lea	a2,[a15]92
	ld.w	d15,[a2]
.L87:
	jne	d15,#4,.L2
.L88:

; BSW\src\BSW\Gen\Rba_FeeFs1\src\rba_FeeFs1_Cbk.c	    75      {
; BSW\src\BSW\Gen\Rba_FeeFs1\src\rba_FeeFs1_Cbk.c	    76          /* Fls_Read was finished with success */
; BSW\src\BSW\Gen\Rba_FeeFs1\src\rba_FeeFs1_Cbk.c	    77          Fee_RdWrOrder_st.Fee_LLRdState_en = FEE_LL_READ_FINISHED_E;
	mov	d15,#6
.L89:
	st.w	[a2],d15
.L90:
	j	.L3
.L2:

; BSW\src\BSW\Gen\Rba_FeeFs1\src\rba_FeeFs1_Cbk.c	    78      }
; BSW\src\BSW\Gen\Rba_FeeFs1\src\rba_FeeFs1_Cbk.c	    79      else
; BSW\src\BSW\Gen\Rba_FeeFs1\src\rba_FeeFs1_Cbk.c	    80      {
; BSW\src\BSW\Gen\Rba_FeeFs1\src\rba_FeeFs1_Cbk.c	    81          /* Fasten up most common use case */
; BSW\src\BSW\Gen\Rba_FeeFs1\src\rba_FeeFs1_Cbk.c	    82  
; BSW\src\BSW\Gen\Rba_FeeFs1\src\rba_FeeFs1_Cbk.c	    83          /* Switch the read state machine */
; BSW\src\BSW\Gen\Rba_FeeFs1\src\rba_FeeFs1_Cbk.c	    84          if(Fee_RdWrOrder_st.Fee_LLRdState_en == FEE_LL_BLANK_CHECK_WAIT_E)
	jne	d15,#2,.L4
.L91:

; BSW\src\BSW\Gen\Rba_FeeFs1\src\rba_FeeFs1_Cbk.c	    85          {
; BSW\src\BSW\Gen\Rba_FeeFs1\src\rba_FeeFs1_Cbk.c	    86              /* Fls_Rb_BlankCheck was finished with success */
; BSW\src\BSW\Gen\Rba_FeeFs1\src\rba_FeeFs1_Cbk.c	    87              Fee_RdWrOrder_st.Fee_LLRdState_en = FEE_LL_BLANK_CHECK_E;
	mov	d15,#1
.L92:
	st.w	[a2],d15
.L4:

; BSW\src\BSW\Gen\Rba_FeeFs1\src\rba_FeeFs1_Cbk.c	    88          }
; BSW\src\BSW\Gen\Rba_FeeFs1\src\rba_FeeFs1_Cbk.c	    89  
; BSW\src\BSW\Gen\Rba_FeeFs1\src\rba_FeeFs1_Cbk.c	    90          /* Switch the blank check state machine */
; BSW\src\BSW\Gen\Rba_FeeFs1\src\rba_FeeFs1_Cbk.c	    91          if(Fee_RdWrOrder_st.Fee_LLBlankCheckState_en == FEE_LL_WAIT_PERFORM_BLANK_CHECK_E)
	lea	a2,[a15]96
	ld.w	d15,[a2]
.L93:
	jne	d15,#2,.L5
.L94:

; BSW\src\BSW\Gen\Rba_FeeFs1\src\rba_FeeFs1_Cbk.c	    92          {
; BSW\src\BSW\Gen\Rba_FeeFs1\src\rba_FeeFs1_Cbk.c	    93              /* Blank check was finished with success */
; BSW\src\BSW\Gen\Rba_FeeFs1\src\rba_FeeFs1_Cbk.c	    94              Fee_RdWrOrder_st.Fee_LLBlankCheckState_en = FEE_LL_BLANK_CHECK_FINISHED_E;
	mov	d15,#4
.L95:
	st.w	[a2],d15
.L5:

; BSW\src\BSW\Gen\Rba_FeeFs1\src\rba_FeeFs1_Cbk.c	    95          }
; BSW\src\BSW\Gen\Rba_FeeFs1\src\rba_FeeFs1_Cbk.c	    96  
; BSW\src\BSW\Gen\Rba_FeeFs1\src\rba_FeeFs1_Cbk.c	    97          /* Switch the sector detection state machine */
; BSW\src\BSW\Gen\Rba_FeeFs1\src\rba_FeeFs1_Cbk.c	    98  #if (defined(RBA_FLSRH850P1xC_FLASH) || defined(RBA_FLSV850R1x_FLASH) || defined(RBA_FLSRH850xx_FLASH))
; BSW\src\BSW\Gen\Rba_FeeFs1\src\rba_FeeFs1_Cbk.c	    99          if(Fee_RdWrOrder_st.Fee_LLFindEmptyPageState_en == FEE_LL_FINDEMPTYPGE_WAIT_E)
; BSW\src\BSW\Gen\Rba_FeeFs1\src\rba_FeeFs1_Cbk.c	   100          {
; BSW\src\BSW\Gen\Rba_FeeFs1\src\rba_FeeFs1_Cbk.c	   101              /* Chunk is blank */
; BSW\src\BSW\Gen\Rba_FeeFs1\src\rba_FeeFs1_Cbk.c	   102              Fee_RdWrOrder_st.Fee_LLFindEmptyPageState_en = FEE_LL_FINDEMPTYPGE_RESULT_BLANK_E;
; BSW\src\BSW\Gen\Rba_FeeFs1\src\rba_FeeFs1_Cbk.c	   103          }
; BSW\src\BSW\Gen\Rba_FeeFs1\src\rba_FeeFs1_Cbk.c	   104  #endif
; BSW\src\BSW\Gen\Rba_FeeFs1\src\rba_FeeFs1_Cbk.c	   105  
; BSW\src\BSW\Gen\Rba_FeeFs1\src\rba_FeeFs1_Cbk.c	   106          /* Switch the state machine of the function Fee_LLWriteMarker */
; BSW\src\BSW\Gen\Rba_FeeFs1\src\rba_FeeFs1_Cbk.c	   107          if(Fee_RdWrOrder_st.Fee_LLWrMarker_en == FEE_LL_MARKER_BLK_CHK_WAIT_E)
	lea	a2,[a15]88
	ld.w	d15,[a2]
.L96:
	jne	d15,#2,.L6
.L97:

; BSW\src\BSW\Gen\Rba_FeeFs1\src\rba_FeeFs1_Cbk.c	   108          {
; BSW\src\BSW\Gen\Rba_FeeFs1\src\rba_FeeFs1_Cbk.c	   109              /* Fls_BlankCheck was finished with success */
; BSW\src\BSW\Gen\Rba_FeeFs1\src\rba_FeeFs1_Cbk.c	   110              Fee_RdWrOrder_st.Fee_LLWrMarker_en = FEE_LL_MARKER_BLK_CHK_FINISHED_E;
	mov	d15,#4
.L98:
	st.w	[a2],d15
.L6:

; BSW\src\BSW\Gen\Rba_FeeFs1\src\rba_FeeFs1_Cbk.c	   111          }
; BSW\src\BSW\Gen\Rba_FeeFs1\src\rba_FeeFs1_Cbk.c	   112  
; BSW\src\BSW\Gen\Rba_FeeFs1\src\rba_FeeFs1_Cbk.c	   113          /* Switch the state machine of the function Fee_LLWriteMarker */
; BSW\src\BSW\Gen\Rba_FeeFs1\src\rba_FeeFs1_Cbk.c	   114          if(Fee_RdWrOrder_st.Fee_LLWrMarker_en == FEE_LL_MARKER_WRITE_WAIT_E)
	ld.w	d15,[a2]
.L99:
	jne	d15,#5,.L7
.L100:

; BSW\src\BSW\Gen\Rba_FeeFs1\src\rba_FeeFs1_Cbk.c	   115          {
; BSW\src\BSW\Gen\Rba_FeeFs1\src\rba_FeeFs1_Cbk.c	   116              /* Fls_Write was finished with success */
; BSW\src\BSW\Gen\Rba_FeeFs1\src\rba_FeeFs1_Cbk.c	   117              Fee_RdWrOrder_st.Fee_LLWrMarker_en = FEE_LL_MARKER_VERIFY_E;
	mov	d15,#7
.L101:
	st.w	[a2],d15
.L7:

; BSW\src\BSW\Gen\Rba_FeeFs1\src\rba_FeeFs1_Cbk.c	   118          }
; BSW\src\BSW\Gen\Rba_FeeFs1\src\rba_FeeFs1_Cbk.c	   119  
; BSW\src\BSW\Gen\Rba_FeeFs1\src\rba_FeeFs1_Cbk.c	   120          /* Switch the state machine of the function Fee_LLWriteMarker */
; BSW\src\BSW\Gen\Rba_FeeFs1\src\rba_FeeFs1_Cbk.c	   121          if(Fee_RdWrOrder_st.Fee_LLWrMarker_en == FEE_LL_MARKER_VERIFY_WAIT_E)
	ld.w	d0,[a2]
.L102:
	mov	d15,#8
.L103:
	jne	d15,d0,.L8
.L104:

; BSW\src\BSW\Gen\Rba_FeeFs1\src\rba_FeeFs1_Cbk.c	   122          {
; BSW\src\BSW\Gen\Rba_FeeFs1\src\rba_FeeFs1_Cbk.c	   123              /* Fls_Write was finished with success */
; BSW\src\BSW\Gen\Rba_FeeFs1\src\rba_FeeFs1_Cbk.c	   124              Fee_RdWrOrder_st.Fee_LLWrMarker_en = FEE_LL_MARKER_VERIFY_FINISHED_E;
	mov	d15,#9
.L105:
	st.w	[a2],d15
.L8:

; BSW\src\BSW\Gen\Rba_FeeFs1\src\rba_FeeFs1_Cbk.c	   125          }
; BSW\src\BSW\Gen\Rba_FeeFs1\src\rba_FeeFs1_Cbk.c	   126  
; BSW\src\BSW\Gen\Rba_FeeFs1\src\rba_FeeFs1_Cbk.c	   127  #if (FEE_HEADER_RECHECK_ACTIVE != FALSE)
; BSW\src\BSW\Gen\Rba_FeeFs1\src\rba_FeeFs1_Cbk.c	   128          /* Switch state machine of the function Fee_LLSearchNextBlkHeader */
; BSW\src\BSW\Gen\Rba_FeeFs1\src\rba_FeeFs1_Cbk.c	   129          if(Fee_RdWrOrder_st.Fee_LLRdState_en == FEE_LL_RECHECK_HEADER_WAIT_E)
; BSW\src\BSW\Gen\Rba_FeeFs1\src\rba_FeeFs1_Cbk.c	   130          {
; BSW\src\BSW\Gen\Rba_FeeFs1\src\rba_FeeFs1_Cbk.c	   131              /* Fls_Rb_BlankCheck was finished with success */
; BSW\src\BSW\Gen\Rba_FeeFs1\src\rba_FeeFs1_Cbk.c	   132              Fee_RdWrOrder_st.Fee_LLRdState_en = FEE_LL_RECHECK_HEADER_FAILED_E;
; BSW\src\BSW\Gen\Rba_FeeFs1\src\rba_FeeFs1_Cbk.c	   133          }
; BSW\src\BSW\Gen\Rba_FeeFs1\src\rba_FeeFs1_Cbk.c	   134  
; BSW\src\BSW\Gen\Rba_FeeFs1\src\rba_FeeFs1_Cbk.c	   135  #if (FEE_NO_FALLBACK_ACTIVE != FALSE)
; BSW\src\BSW\Gen\Rba_FeeFs1\src\rba_FeeFs1_Cbk.c	   136          /* Switch state machine of the function Fee_LLSearchNextBlkHeader */
; BSW\src\BSW\Gen\Rba_FeeFs1\src\rba_FeeFs1_Cbk.c	   137          if(Fee_RdWrOrder_st.Fee_LLRdState_en == FEE_LL_NOFALLBACK_MARKER_CHECK_WAIT_E)
; BSW\src\BSW\Gen\Rba_FeeFs1\src\rba_FeeFs1_Cbk.c	   138          {
; BSW\src\BSW\Gen\Rba_FeeFs1\src\rba_FeeFs1_Cbk.c	   139              /* Fls_Rb_BlankCheck was finished with success */
; BSW\src\BSW\Gen\Rba_FeeFs1\src\rba_FeeFs1_Cbk.c	   140              Fee_RdWrOrder_st.Fee_LLRdState_en = FEE_LL_RECHECK_HEADER_E;
; BSW\src\BSW\Gen\Rba_FeeFs1\src\rba_FeeFs1_Cbk.c	   141          }
; BSW\src\BSW\Gen\Rba_FeeFs1\src\rba_FeeFs1_Cbk.c	   142  
; BSW\src\BSW\Gen\Rba_FeeFs1\src\rba_FeeFs1_Cbk.c	   143          /* Switch state machine of the function Fee_LLWriteBlock */
; BSW\src\BSW\Gen\Rba_FeeFs1\src\rba_FeeFs1_Cbk.c	   144          if(Fee_RdWrOrder_st.Fee_LLWrBlock_en == FEE_LL_WR_WRITE_NOFB_MARKER_WAIT_E)
; BSW\src\BSW\Gen\Rba_FeeFs1\src\rba_FeeFs1_Cbk.c	   145          {
; BSW\src\BSW\Gen\Rba_FeeFs1\src\rba_FeeFs1_Cbk.c	   146              /* Fls_Write was finished with success */
; BSW\src\BSW\Gen\Rba_FeeFs1\src\rba_FeeFs1_Cbk.c	   147              Fee_RdWrOrder_st.Fee_LLWrBlock_en = FEE_LL_WR_FILL_SECTOR_END_E;
; BSW\src\BSW\Gen\Rba_FeeFs1\src\rba_FeeFs1_Cbk.c	   148          }
; BSW\src\BSW\Gen\Rba_FeeFs1\src\rba_FeeFs1_Cbk.c	   149  
; BSW\src\BSW\Gen\Rba_FeeFs1\src\rba_FeeFs1_Cbk.c	   150          /* Switch state machine of the function Fee_LLWriteBlock */
; BSW\src\BSW\Gen\Rba_FeeFs1\src\rba_FeeFs1_Cbk.c	   151          if(Fee_RdWrOrder_st.Fee_LLWrBlock_en == FEE_LL_WR_FILL_SECTOR_END_WAIT_E)
; BSW\src\BSW\Gen\Rba_FeeFs1\src\rba_FeeFs1_Cbk.c	   152          {
; BSW\src\BSW\Gen\Rba_FeeFs1\src\rba_FeeFs1_Cbk.c	   153              /* Fls_Write was finished with success */
; BSW\src\BSW\Gen\Rba_FeeFs1\src\rba_FeeFs1_Cbk.c	   154              Fee_RdWrOrder_st.Fee_LLWrBlock_en = FEE_LL_WR_WRITEHEADER_E;
; BSW\src\BSW\Gen\Rba_FeeFs1\src\rba_FeeFs1_Cbk.c	   155          }
; BSW\src\BSW\Gen\Rba_FeeFs1\src\rba_FeeFs1_Cbk.c	   156  
; BSW\src\BSW\Gen\Rba_FeeFs1\src\rba_FeeFs1_Cbk.c	   157          /* Switch state machine of the function Fee_LLCpyBlkFromFls2Fls */
; BSW\src\BSW\Gen\Rba_FeeFs1\src\rba_FeeFs1_Cbk.c	   158          if(Fee_RdWrOrder_st.Fee_LLCpyBlkFls2Fls_en == FEE_LL_CPY_FLS2FLS_WAIT_FILL_SECTOR_END_E)
; BSW\src\BSW\Gen\Rba_FeeFs1\src\rba_FeeFs1_Cbk.c	   159          {
; BSW\src\BSW\Gen\Rba_FeeFs1\src\rba_FeeFs1_Cbk.c	   160              /* Go back to the init state to continue the order */
; BSW\src\BSW\Gen\Rba_FeeFs1\src\rba_FeeFs1_Cbk.c	   161              Fee_RdWrOrder_st.Fee_LLCpyBlkFls2Fls_en = FEE_LL_CPY_FLS2FLS_INIT_E;
; BSW\src\BSW\Gen\Rba_FeeFs1\src\rba_FeeFs1_Cbk.c	   162          }
; BSW\src\BSW\Gen\Rba_FeeFs1\src\rba_FeeFs1_Cbk.c	   163  
; BSW\src\BSW\Gen\Rba_FeeFs1\src\rba_FeeFs1_Cbk.c	   164          /* Switch state machine of the function Fee_LLCpyBlkFromFls2Fls */
; BSW\src\BSW\Gen\Rba_FeeFs1\src\rba_FeeFs1_Cbk.c	   165          if(Fee_RdWrOrder_st.Fee_LLCpyBlkFls2Fls_en == FEE_LL_CPY_FLS2FLS_WAIT_WRITE_NOFB_MARKER_E)
; BSW\src\BSW\Gen\Rba_FeeFs1\src\rba_FeeFs1_Cbk.c	   166          {
; BSW\src\BSW\Gen\Rba_FeeFs1\src\rba_FeeFs1_Cbk.c	   167              Fee_RdWrOrder_st.Fee_LLCpyBlkFls2Fls_en = FEE_LL_CPY_FLS2FLS_READ_E;
; BSW\src\BSW\Gen\Rba_FeeFs1\src\rba_FeeFs1_Cbk.c	   168          }
; BSW\src\BSW\Gen\Rba_FeeFs1\src\rba_FeeFs1_Cbk.c	   169  /* FEE_NO_FALLBACK_ACTIVE != FALSE */
; BSW\src\BSW\Gen\Rba_FeeFs1\src\rba_FeeFs1_Cbk.c	   170  #endif
; BSW\src\BSW\Gen\Rba_FeeFs1\src\rba_FeeFs1_Cbk.c	   171  /* FEE_HEADER_RECHECK_ACTIVE != FALSE */
; BSW\src\BSW\Gen\Rba_FeeFs1\src\rba_FeeFs1_Cbk.c	   172  #endif
; BSW\src\BSW\Gen\Rba_FeeFs1\src\rba_FeeFs1_Cbk.c	   173  
; BSW\src\BSW\Gen\Rba_FeeFs1\src\rba_FeeFs1_Cbk.c	   174          /* Switch state machine of the function Fee_LLWriteBlock */
; BSW\src\BSW\Gen\Rba_FeeFs1\src\rba_FeeFs1_Cbk.c	   175  #if (FEE_NO_FALLBACK_ACTIVE != FALSE)
; BSW\src\BSW\Gen\Rba_FeeFs1\src\rba_FeeFs1_Cbk.c	   176          if(Fee_RdWrOrder_st.Fee_LLWrBlock_en == FEE_LL_WR_BLANKCHECK_NOFB_WR_WAIT_E)
; BSW\src\BSW\Gen\Rba_FeeFs1\src\rba_FeeFs1_Cbk.c	   177          {
; BSW\src\BSW\Gen\Rba_FeeFs1\src\rba_FeeFs1_Cbk.c	   178              /* Fls_Write was finished with success */
; BSW\src\BSW\Gen\Rba_FeeFs1\src\rba_FeeFs1_Cbk.c	   179              Fee_RdWrOrder_st.Fee_LLWrBlock_en = FEE_LL_WR_WRITE_NOFB_MARKER_E;
; BSW\src\BSW\Gen\Rba_FeeFs1\src\rba_FeeFs1_Cbk.c	   180          }
; BSW\src\BSW\Gen\Rba_FeeFs1\src\rba_FeeFs1_Cbk.c	   181  #endif //(FEE_NO_FALLBACK_ACTIVE != FALSE)
; BSW\src\BSW\Gen\Rba_FeeFs1\src\rba_FeeFs1_Cbk.c	   182  
; BSW\src\BSW\Gen\Rba_FeeFs1\src\rba_FeeFs1_Cbk.c	   183          if(Fee_RdWrOrder_st.Fee_LLWrBlock_en == FEE_LL_WR_WRITEHEADER_WAIT_E)
	lea	a2,[a15]60
	ld.w	d15,[a2]
.L106:
	jne	d15,#3,.L9
.L107:

; BSW\src\BSW\Gen\Rba_FeeFs1\src\rba_FeeFs1_Cbk.c	   184          {
; BSW\src\BSW\Gen\Rba_FeeFs1\src\rba_FeeFs1_Cbk.c	   185              /* Fls_Write was finished with success */
; BSW\src\BSW\Gen\Rba_FeeFs1\src\rba_FeeFs1_Cbk.c	   186              Fee_RdWrOrder_st.Fee_LLWrBlock_en = FEE_LL_WR_VERIFYHEADER_E;
	mov	d15,#4
.L108:
	st.w	[a2],d15
.L9:

; BSW\src\BSW\Gen\Rba_FeeFs1\src\rba_FeeFs1_Cbk.c	   187          }
; BSW\src\BSW\Gen\Rba_FeeFs1\src\rba_FeeFs1_Cbk.c	   188  
; BSW\src\BSW\Gen\Rba_FeeFs1\src\rba_FeeFs1_Cbk.c	   189          /* Switch state machine of the function Fee_LLWriteBlock */
; BSW\src\BSW\Gen\Rba_FeeFs1\src\rba_FeeFs1_Cbk.c	   190          if(Fee_RdWrOrder_st.Fee_LLWrBlock_en == FEE_LL_WR_VERIFYHEADER_WAIT_E)
	ld.w	d15,[a2]
.L109:
	jne	d15,#5,.L10
.L110:

; BSW\src\BSW\Gen\Rba_FeeFs1\src\rba_FeeFs1_Cbk.c	   191          {
; BSW\src\BSW\Gen\Rba_FeeFs1\src\rba_FeeFs1_Cbk.c	   192              /* Fls_Compare was finished with success */
; BSW\src\BSW\Gen\Rba_FeeFs1\src\rba_FeeFs1_Cbk.c	   193              Fee_RdWrOrder_st.Fee_LLWrBlock_en = FEE_LL_WR_WRITEDATA_SEC_A_E;
	mov	d15,#7
.L111:
	st.w	[a2],d15
.L10:

; BSW\src\BSW\Gen\Rba_FeeFs1\src\rba_FeeFs1_Cbk.c	   194          }
; BSW\src\BSW\Gen\Rba_FeeFs1\src\rba_FeeFs1_Cbk.c	   195  
; BSW\src\BSW\Gen\Rba_FeeFs1\src\rba_FeeFs1_Cbk.c	   196          /* Switch the state machine of the function Fee_LLWriteBlock */
; BSW\src\BSW\Gen\Rba_FeeFs1\src\rba_FeeFs1_Cbk.c	   197          if(Fee_RdWrOrder_st.Fee_LLWrBlock_en == FEE_LL_WR_WAIT_WRITEDATA_SEC_A_E)
	ld.w	d0,[a2]
.L112:
	mov	d15,#8
.L113:
	jne	d15,d0,.L11
.L114:

; BSW\src\BSW\Gen\Rba_FeeFs1\src\rba_FeeFs1_Cbk.c	   198          {
; BSW\src\BSW\Gen\Rba_FeeFs1\src\rba_FeeFs1_Cbk.c	   199              /* Fls_Write was finished with success */
; BSW\src\BSW\Gen\Rba_FeeFs1\src\rba_FeeFs1_Cbk.c	   200              Fee_RdWrOrder_st.Fee_LLWrBlock_en = FEE_LL_WR_VERIFY_BLK_E;
	mov	d15,#14
.L115:
	st.w	[a2],d15
.L11:

; BSW\src\BSW\Gen\Rba_FeeFs1\src\rba_FeeFs1_Cbk.c	   201          }
; BSW\src\BSW\Gen\Rba_FeeFs1\src\rba_FeeFs1_Cbk.c	   202  
; BSW\src\BSW\Gen\Rba_FeeFs1\src\rba_FeeFs1_Cbk.c	   203  #if (FEE_PAGES_USED_BY_BLK_HEADER == 2u)    /* Robust block programming states (Hdpg1 -> Data -> Hdpg2 write) */
; BSW\src\BSW\Gen\Rba_FeeFs1\src\rba_FeeFs1_Cbk.c	   204          /* Switch the state machine of the function Fee_LLWriteBlock */
; BSW\src\BSW\Gen\Rba_FeeFs1\src\rba_FeeFs1_Cbk.c	   205          if(Fee_RdWrOrder_st.Fee_LLWrBlock_en == FEE_LL_WR_WAIT_WRITEHDRPG2_E)
	ld.w	d0,[a2]
.L116:
	mov	d15,#16
.L117:
	jne	d15,d0,.L12
.L118:

; BSW\src\BSW\Gen\Rba_FeeFs1\src\rba_FeeFs1_Cbk.c	   206          {
; BSW\src\BSW\Gen\Rba_FeeFs1\src\rba_FeeFs1_Cbk.c	   207              /* Fls_Write was finished with success */
; BSW\src\BSW\Gen\Rba_FeeFs1\src\rba_FeeFs1_Cbk.c	   208              Fee_RdWrOrder_st.Fee_LLWrBlock_en = FEE_LL_WR_VERIFY_BLK_E;
	mov	d15,#14
.L119:
	st.w	[a2],d15
.L12:

; BSW\src\BSW\Gen\Rba_FeeFs1\src\rba_FeeFs1_Cbk.c	   209          }
; BSW\src\BSW\Gen\Rba_FeeFs1\src\rba_FeeFs1_Cbk.c	   210  #endif
; BSW\src\BSW\Gen\Rba_FeeFs1\src\rba_FeeFs1_Cbk.c	   211  
; BSW\src\BSW\Gen\Rba_FeeFs1\src\rba_FeeFs1_Cbk.c	   212  #if(FEE_RB_MAINTAIN != FALSE)
; BSW\src\BSW\Gen\Rba_FeeFs1\src\rba_FeeFs1_Cbk.c	   213          /* Switch the state machine of the function Fee_HlMaintainBlock */
; BSW\src\BSW\Gen\Rba_FeeFs1\src\rba_FeeFs1_Cbk.c	   214          if(Fee_RdWrOrder_st.Fee_HLMtBlock_en == FEE_HL_READ_BLK_HDR_WAIT_E)
	lea	a2,[a15]56
	ld.w	d15,[a2]
.L120:
	jne	d15,#2,.L13
.L121:

; BSW\src\BSW\Gen\Rba_FeeFs1\src\rba_FeeFs1_Cbk.c	   215          {
; BSW\src\BSW\Gen\Rba_FeeFs1\src\rba_FeeFs1_Cbk.c	   216              /* Fls_Read was finished with success, check the read block header */
; BSW\src\BSW\Gen\Rba_FeeFs1\src\rba_FeeFs1_Cbk.c	   217              Fee_RdWrOrder_st.Fee_HLMtBlock_en = FEE_HL_CHECK_BLK_HDR_E;
	mov	d15,#3
.L122:
	st.w	[a2],d15
.L13:

; BSW\src\BSW\Gen\Rba_FeeFs1\src\rba_FeeFs1_Cbk.c	   218          }
; BSW\src\BSW\Gen\Rba_FeeFs1\src\rba_FeeFs1_Cbk.c	   219  #endif
; BSW\src\BSW\Gen\Rba_FeeFs1\src\rba_FeeFs1_Cbk.c	   220  
; BSW\src\BSW\Gen\Rba_FeeFs1\src\rba_FeeFs1_Cbk.c	   221          /* Switch the state machine of the function Fee_LLCompBlkInFlash */
; BSW\src\BSW\Gen\Rba_FeeFs1\src\rba_FeeFs1_Cbk.c	   222          if(Fee_RdWrOrder_st.Fee_LLCompBlk == FEE_LL_CMP_WAIT_HEADER_E)
	lea	a2,[a15]76
	ld.w	d15,[a2]
.L123:
	jne	d15,#2,.L14
.L124:

; BSW\src\BSW\Gen\Rba_FeeFs1\src\rba_FeeFs1_Cbk.c	   223          {
; BSW\src\BSW\Gen\Rba_FeeFs1\src\rba_FeeFs1_Cbk.c	   224              /* Fls_Compare was finished with success */
; BSW\src\BSW\Gen\Rba_FeeFs1\src\rba_FeeFs1_Cbk.c	   225              /* Check if there was no call of the Fee_JobErrorNotification
; BSW\src\BSW\Gen\Rba_FeeFs1\src\rba_FeeFs1_Cbk.c	   226               * function before (the compare state is still 0xFF) */
; BSW\src\BSW\Gen\Rba_FeeFs1\src\rba_FeeFs1_Cbk.c	   227              if(Fee_GlobInfoWrBlock_st.CompareResult_u8 == 0xFF)
	movh.a	a4,#@his(Fee_GlobInfoWrBlock_st)
	lea	a4,[a4]@los(Fee_GlobInfoWrBlock_st)
.L125:
	add.a	a4,#6
	ld.bu	d0,[a4]
.L126:
	mov	d15,#255
.L127:
	jne	d15,d0,.L15
.L128:

; BSW\src\BSW\Gen\Rba_FeeFs1\src\rba_FeeFs1_Cbk.c	   228              {
; BSW\src\BSW\Gen\Rba_FeeFs1\src\rba_FeeFs1_Cbk.c	   229                  /* Reset the compare result */
; BSW\src\BSW\Gen\Rba_FeeFs1\src\rba_FeeFs1_Cbk.c	   230                  Fee_GlobInfoWrBlock_st.CompareResult_u8 = 0;
	mov	d15,#0
.L129:
	st.b	[a4],d15
.L15:

; BSW\src\BSW\Gen\Rba_FeeFs1\src\rba_FeeFs1_Cbk.c	   231              }
; BSW\src\BSW\Gen\Rba_FeeFs1\src\rba_FeeFs1_Cbk.c	   232  
; BSW\src\BSW\Gen\Rba_FeeFs1\src\rba_FeeFs1_Cbk.c	   233              /* Set next state */
; BSW\src\BSW\Gen\Rba_FeeFs1\src\rba_FeeFs1_Cbk.c	   234              Fee_RdWrOrder_st.Fee_LLCompBlk = FEE_LL_CMP_CHECK_OVERLAP_E;
	mov	d15,#3
.L130:
	st.w	[a2],d15
.L14:

; BSW\src\BSW\Gen\Rba_FeeFs1\src\rba_FeeFs1_Cbk.c	   235          }
; BSW\src\BSW\Gen\Rba_FeeFs1\src\rba_FeeFs1_Cbk.c	   236  
; BSW\src\BSW\Gen\Rba_FeeFs1\src\rba_FeeFs1_Cbk.c	   237          if(Fee_RdWrOrder_st.Fee_LLCompBlk == FEE_LL_CMP_WAIT_DATA_SEC_A_E)
	ld.w	d15,[a2]
.L131:
	jne	d15,#5,.L16
.L132:

; BSW\src\BSW\Gen\Rba_FeeFs1\src\rba_FeeFs1_Cbk.c	   238          {
; BSW\src\BSW\Gen\Rba_FeeFs1\src\rba_FeeFs1_Cbk.c	   239              /* Fls_Compare was finished with success */
; BSW\src\BSW\Gen\Rba_FeeFs1\src\rba_FeeFs1_Cbk.c	   240              /* Check if there was no call of the Fee_JobErrorNotification
; BSW\src\BSW\Gen\Rba_FeeFs1\src\rba_FeeFs1_Cbk.c	   241               * function before (the compare state is still 0xFF) */
; BSW\src\BSW\Gen\Rba_FeeFs1\src\rba_FeeFs1_Cbk.c	   242              if(Fee_GlobInfoWrBlock_st.CompareResult_u8 == 0xFF)
	movh.a	a4,#@his(Fee_GlobInfoWrBlock_st)
	lea	a4,[a4]@los(Fee_GlobInfoWrBlock_st)
.L133:
	add.a	a4,#6
	ld.bu	d0,[a4]
.L134:
	mov	d15,#255
.L135:
	jne	d15,d0,.L17
.L136:

; BSW\src\BSW\Gen\Rba_FeeFs1\src\rba_FeeFs1_Cbk.c	   243              {
; BSW\src\BSW\Gen\Rba_FeeFs1\src\rba_FeeFs1_Cbk.c	   244                  /* Reset the compare result */
; BSW\src\BSW\Gen\Rba_FeeFs1\src\rba_FeeFs1_Cbk.c	   245                  Fee_GlobInfoWrBlock_st.CompareResult_u8 = 0;
	mov	d15,#0
.L137:
	st.b	[a4],d15
.L17:

; BSW\src\BSW\Gen\Rba_FeeFs1\src\rba_FeeFs1_Cbk.c	   246              }
; BSW\src\BSW\Gen\Rba_FeeFs1\src\rba_FeeFs1_Cbk.c	   247  
; BSW\src\BSW\Gen\Rba_FeeFs1\src\rba_FeeFs1_Cbk.c	   248              /* Set next state */
; BSW\src\BSW\Gen\Rba_FeeFs1\src\rba_FeeFs1_Cbk.c	   249              Fee_RdWrOrder_st.Fee_LLCompBlk = FEE_LL_CMP_FINISHED_E;
	mov	d15,#6
.L138:
	st.w	[a2],d15
.L16:

; BSW\src\BSW\Gen\Rba_FeeFs1\src\rba_FeeFs1_Cbk.c	   250          }
; BSW\src\BSW\Gen\Rba_FeeFs1\src\rba_FeeFs1_Cbk.c	   251  
; BSW\src\BSW\Gen\Rba_FeeFs1\src\rba_FeeFs1_Cbk.c	   252          /* Switch state machine of the function Fee_LLCalcBlkCrcInFlash */
; BSW\src\BSW\Gen\Rba_FeeFs1\src\rba_FeeFs1_Cbk.c	   253          if(Fee_RdWrOrder_st.Fee_LLCalcCrcBlk_en == FEE_LL_CRC_RD_PAGE_WAIT_E)
	lea	a2,[a15]84
	ld.w	d15,[a2]
.L139:
	jne	d15,#7,.L18
.L140:

; BSW\src\BSW\Gen\Rba_FeeFs1\src\rba_FeeFs1_Cbk.c	   254          {
; BSW\src\BSW\Gen\Rba_FeeFs1\src\rba_FeeFs1_Cbk.c	   255              /* Fls_Read was finished with success */
; BSW\src\BSW\Gen\Rba_FeeFs1\src\rba_FeeFs1_Cbk.c	   256              Fee_RdWrOrder_st.Fee_LLCalcCrcBlk_en = FEE_LL_CRC_CHECK_OVERLAP_E;
	mov	d15,#3
.L141:
	st.w	[a2],d15
.L18:

; BSW\src\BSW\Gen\Rba_FeeFs1\src\rba_FeeFs1_Cbk.c	   257          }
; BSW\src\BSW\Gen\Rba_FeeFs1\src\rba_FeeFs1_Cbk.c	   258  
; BSW\src\BSW\Gen\Rba_FeeFs1\src\rba_FeeFs1_Cbk.c	   259          #if(FEE_ROB_FEATURE_ACTIVE != FALSE)
; BSW\src\BSW\Gen\Rba_FeeFs1\src\rba_FeeFs1_Cbk.c	   260          /* Switch state machine of the function Fee_LLCalcBlkCrcInFlash */
; BSW\src\BSW\Gen\Rba_FeeFs1\src\rba_FeeFs1_Cbk.c	   261          if(Fee_RdWrOrder_st.Fee_LLCalcCrcBlk_en == FEE_LL_CRC_RD_ROB_PAGE_WAIT_E)
	ld.w	d15,[a2]
.L142:
	jne	d15,#6,.L19
.L143:

; BSW\src\BSW\Gen\Rba_FeeFs1\src\rba_FeeFs1_Cbk.c	   262          {
; BSW\src\BSW\Gen\Rba_FeeFs1\src\rba_FeeFs1_Cbk.c	   263              /* Fls_Read was finished with success */
; BSW\src\BSW\Gen\Rba_FeeFs1\src\rba_FeeFs1_Cbk.c	   264              Fee_RdWrOrder_st.Fee_LLCalcCrcBlk_en = FEE_LL_CRC_CHECK_OVERLAP_ROB_E;
	mov	d15,#5
.L144:
	st.w	[a2],d15
.L19:

; BSW\src\BSW\Gen\Rba_FeeFs1\src\rba_FeeFs1_Cbk.c	   265          }
; BSW\src\BSW\Gen\Rba_FeeFs1\src\rba_FeeFs1_Cbk.c	   266          #endif
; BSW\src\BSW\Gen\Rba_FeeFs1\src\rba_FeeFs1_Cbk.c	   267  
; BSW\src\BSW\Gen\Rba_FeeFs1\src\rba_FeeFs1_Cbk.c	   268          /* Switch state machine of the function Fee_LLEraseSector */
; BSW\src\BSW\Gen\Rba_FeeFs1\src\rba_FeeFs1_Cbk.c	   269          if(Fee_LLEraseOrder_st.EraseState_en == FEE_ERASESEC_DO_E)
	movh.a	a2,#@his(Fee_LLEraseOrder_st)
	lea	a2,[a2]@los(Fee_LLEraseOrder_st)
.L145:
	ld.w	d15,[a2]
.L146:
	jne	d15,#3,.L20
.L147:

; BSW\src\BSW\Gen\Rba_FeeFs1\src\rba_FeeFs1_Cbk.c	   270          {
; BSW\src\BSW\Gen\Rba_FeeFs1\src\rba_FeeFs1_Cbk.c	   271              /* In case of suspend it might be necessary to switch a read or write
; BSW\src\BSW\Gen\Rba_FeeFs1\src\rba_FeeFs1_Cbk.c	   272               * state machine instead of switching the erase state machine */
; BSW\src\BSW\Gen\Rba_FeeFs1\src\rba_FeeFs1_Cbk.c	   273  
; BSW\src\BSW\Gen\Rba_FeeFs1\src\rba_FeeFs1_Cbk.c	   274              /* Hint: an erase during a write or reorg is not regarded because
; BSW\src\BSW\Gen\Rba_FeeFs1\src\rba_FeeFs1_Cbk.c	   275               *       this case is not common at all. It will be changed by
; BSW\src\BSW\Gen\Rba_FeeFs1\src\rba_FeeFs1_Cbk.c	   276               *       moving the internal erase sequences to the very
; BSW\src\BSW\Gen\Rba_FeeFs1\src\rba_FeeFs1_Cbk.c	   277               *       upper level (main function). */
; BSW\src\BSW\Gen\Rba_FeeFs1\src\rba_FeeFs1_Cbk.c	   278              #if (FEE_RB_ACT_ERASE_SUSPENSION != FALSE)
; BSW\src\BSW\Gen\Rba_FeeFs1\src\rba_FeeFs1_Cbk.c	   279              if(Fee_Prv_stSuspendActiv_b == FALSE)
; BSW\src\BSW\Gen\Rba_FeeFs1\src\rba_FeeFs1_Cbk.c	   280              #endif
; BSW\src\BSW\Gen\Rba_FeeFs1\src\rba_FeeFs1_Cbk.c	   281              {
; BSW\src\BSW\Gen\Rba_FeeFs1\src\rba_FeeFs1_Cbk.c	   282                  /* Fls_Erase was finished with success */
; BSW\src\BSW\Gen\Rba_FeeFs1\src\rba_FeeFs1_Cbk.c	   283                  Fee_LLEraseOrder_st.EraseState_en = FEE_ERASESEC_WRITE_MARKER_E;
	mov	d15,#4
.L148:
	st.w	[a2],d15
.L20:

; BSW\src\BSW\Gen\Rba_FeeFs1\src\rba_FeeFs1_Cbk.c	   284              }
; BSW\src\BSW\Gen\Rba_FeeFs1\src\rba_FeeFs1_Cbk.c	   285          }
; BSW\src\BSW\Gen\Rba_FeeFs1\src\rba_FeeFs1_Cbk.c	   286  
; BSW\src\BSW\Gen\Rba_FeeFs1\src\rba_FeeFs1_Cbk.c	   287          /* Switch state machine of the function Fee_LLCopyData2Buffer */
; BSW\src\BSW\Gen\Rba_FeeFs1\src\rba_FeeFs1_Cbk.c	   288          if(Fee_RdWrOrder_st.Fee_LLCopyBlk_en == FEE_LL_CPY_BLOCK_WAIT_E)
	lea	a2,[a15]80
	ld.w	d15,[a2]
.L149:
	jne	d15,#2,.L21
.L150:

; BSW\src\BSW\Gen\Rba_FeeFs1\src\rba_FeeFs1_Cbk.c	   289          {
; BSW\src\BSW\Gen\Rba_FeeFs1\src\rba_FeeFs1_Cbk.c	   290              /* Fls_Read was finished with success */
; BSW\src\BSW\Gen\Rba_FeeFs1\src\rba_FeeFs1_Cbk.c	   291              Fee_RdWrOrder_st.Fee_LLCopyBlk_en = FEE_LL_CPY_BLOCK_FINISHED_E;
	mov	d15,#4
.L151:
	st.w	[a2],d15
.L21:

; BSW\src\BSW\Gen\Rba_FeeFs1\src\rba_FeeFs1_Cbk.c	   292          }
; BSW\src\BSW\Gen\Rba_FeeFs1\src\rba_FeeFs1_Cbk.c	   293  
; BSW\src\BSW\Gen\Rba_FeeFs1\src\rba_FeeFs1_Cbk.c	   294          /* Switch state machine of the function Fee_LLCpyBlkFromFls2Fls */
; BSW\src\BSW\Gen\Rba_FeeFs1\src\rba_FeeFs1_Cbk.c	   295          if(Fee_RdWrOrder_st.Fee_LLCpyBlkFls2Fls_en == FEE_LL_CPY_FLS2FLS_WAIT_READ_E)
	lea	a2,[a15]48
	ld.w	d15,[a2]
.L152:
	jne	d15,#2,.L22
.L153:

; BSW\src\BSW\Gen\Rba_FeeFs1\src\rba_FeeFs1_Cbk.c	   296          {
; BSW\src\BSW\Gen\Rba_FeeFs1\src\rba_FeeFs1_Cbk.c	   297              /* Fls_Read was finished with success */
; BSW\src\BSW\Gen\Rba_FeeFs1\src\rba_FeeFs1_Cbk.c	   298  #if (FEE_PAGES_USED_BY_BLK_HEADER == 2u)    /* Robust block programming states (Hdpg1 -> Data -> Hdpg2 write) */
; BSW\src\BSW\Gen\Rba_FeeFs1\src\rba_FeeFs1_Cbk.c	   299              /* Check if header page or data needs to be programmed. */
; BSW\src\BSW\Gen\Rba_FeeFs1\src\rba_FeeFs1_Cbk.c	   300              if(Fee_RdWrOrder_st.xHdPg2Address == FEE_NULL)
	ld.w	d15,[a15]28
.L154:
	jne	d15,#0,.L23
.L155:

; BSW\src\BSW\Gen\Rba_FeeFs1\src\rba_FeeFs1_Cbk.c	   301              {
; BSW\src\BSW\Gen\Rba_FeeFs1\src\rba_FeeFs1_Cbk.c	   302                  /* Program the header page 1. */
; BSW\src\BSW\Gen\Rba_FeeFs1\src\rba_FeeFs1_Cbk.c	   303                  Fee_RdWrOrder_st.Fee_LLCpyBlkFls2Fls_en = FEE_LL_CPY_FLS2FLS_HDRPG1_WRITE_E;
	mov	d15,#4
.L156:
	st.w	[a2],d15
.L157:
	j	.L24
.L23:

; BSW\src\BSW\Gen\Rba_FeeFs1\src\rba_FeeFs1_Cbk.c	   304              }
; BSW\src\BSW\Gen\Rba_FeeFs1\src\rba_FeeFs1_Cbk.c	   305              else
; BSW\src\BSW\Gen\Rba_FeeFs1\src\rba_FeeFs1_Cbk.c	   306  #endif
; BSW\src\BSW\Gen\Rba_FeeFs1\src\rba_FeeFs1_Cbk.c	   307              {
; BSW\src\BSW\Gen\Rba_FeeFs1\src\rba_FeeFs1_Cbk.c	   308                  /* Program the data pages. */
; BSW\src\BSW\Gen\Rba_FeeFs1\src\rba_FeeFs1_Cbk.c	   309                  Fee_RdWrOrder_st.Fee_LLCpyBlkFls2Fls_en = FEE_LL_CPY_FLS2FLS_WRITE_E;
	mov	d15,#10
.L158:
	st.w	[a2],d15
.L24:
.L22:

; BSW\src\BSW\Gen\Rba_FeeFs1\src\rba_FeeFs1_Cbk.c	   310              }
; BSW\src\BSW\Gen\Rba_FeeFs1\src\rba_FeeFs1_Cbk.c	   311          }
; BSW\src\BSW\Gen\Rba_FeeFs1\src\rba_FeeFs1_Cbk.c	   312  
; BSW\src\BSW\Gen\Rba_FeeFs1\src\rba_FeeFs1_Cbk.c	   313  #if (FEE_PAGES_USED_BY_BLK_HEADER == 2u)    /* Robust block programming states (Hdpg1 -> Data -> Hdpg2 write) */
; BSW\src\BSW\Gen\Rba_FeeFs1\src\rba_FeeFs1_Cbk.c	   314          /* Switch state machine of the function Fee_LLCpyBlkFromFls2Fls */
; BSW\src\BSW\Gen\Rba_FeeFs1\src\rba_FeeFs1_Cbk.c	   315          if(Fee_RdWrOrder_st.Fee_LLCpyBlkFls2Fls_en == FEE_LL_CPY_FLS2FLS_WAIT_HDRPG1_WRITE_E)
	ld.w	d15,[a2]
.L159:
	jne	d15,#5,.L25
.L160:

; BSW\src\BSW\Gen\Rba_FeeFs1\src\rba_FeeFs1_Cbk.c	   316          {
; BSW\src\BSW\Gen\Rba_FeeFs1\src\rba_FeeFs1_Cbk.c	   317              /* Fls_Write was finished with success */
; BSW\src\BSW\Gen\Rba_FeeFs1\src\rba_FeeFs1_Cbk.c	   318              Fee_RdWrOrder_st.Fee_LLCpyBlkFls2Fls_en = FEE_LL_CPY_FLS2FLS_HDRPG1_VERIFY_E;
	mov	d15,#7
.L161:
	st.w	[a2],d15
.L25:

; BSW\src\BSW\Gen\Rba_FeeFs1\src\rba_FeeFs1_Cbk.c	   319          }
; BSW\src\BSW\Gen\Rba_FeeFs1\src\rba_FeeFs1_Cbk.c	   320  #endif
; BSW\src\BSW\Gen\Rba_FeeFs1\src\rba_FeeFs1_Cbk.c	   321  
; BSW\src\BSW\Gen\Rba_FeeFs1\src\rba_FeeFs1_Cbk.c	   322          /* Switch state machine of the function Fee_LLCpyBlkFromFls2Fls */
; BSW\src\BSW\Gen\Rba_FeeFs1\src\rba_FeeFs1_Cbk.c	   323          if(Fee_RdWrOrder_st.Fee_LLCpyBlkFls2Fls_en == FEE_LL_CPY_FLS2FLS_WAIT_WRITE_E)
	ld.w	d0,[a2]
.L162:
	mov	d15,#11
.L163:
	jne	d15,d0,.L26
.L164:

; BSW\src\BSW\Gen\Rba_FeeFs1\src\rba_FeeFs1_Cbk.c	   324          {
; BSW\src\BSW\Gen\Rba_FeeFs1\src\rba_FeeFs1_Cbk.c	   325              /* Fls_Write was finished with success */
; BSW\src\BSW\Gen\Rba_FeeFs1\src\rba_FeeFs1_Cbk.c	   326              Fee_RdWrOrder_st.Fee_LLCpyBlkFls2Fls_en = FEE_LL_CPY_FLS2FLS_VERIFY_E;
	mov	d15,#13
.L165:
	st.w	[a2],d15
.L26:

; BSW\src\BSW\Gen\Rba_FeeFs1\src\rba_FeeFs1_Cbk.c	   327          }
; BSW\src\BSW\Gen\Rba_FeeFs1\src\rba_FeeFs1_Cbk.c	   328  
; BSW\src\BSW\Gen\Rba_FeeFs1\src\rba_FeeFs1_Cbk.c	   329  
; BSW\src\BSW\Gen\Rba_FeeFs1\src\rba_FeeFs1_Cbk.c	   330  #if (FEE_PAGES_USED_BY_BLK_HEADER == 2u)    /* Robust block programming states (Hdpg1 -> Data -> Hdpg2 write) */
; BSW\src\BSW\Gen\Rba_FeeFs1\src\rba_FeeFs1_Cbk.c	   331          /* Switch state machine of the function Fee_LLCpyBlkFromFls2Fls */
; BSW\src\BSW\Gen\Rba_FeeFs1\src\rba_FeeFs1_Cbk.c	   332          if(Fee_RdWrOrder_st.Fee_LLCpyBlkFls2Fls_en == FEE_LL_CPY_FLS2FLS_WAIT_HDRPG2_WRITE_E)
	ld.w	d0,[a2]
.L166:
	mov	d15,#17
.L167:
	jne	d15,d0,.L27
.L168:

; BSW\src\BSW\Gen\Rba_FeeFs1\src\rba_FeeFs1_Cbk.c	   333          {
; BSW\src\BSW\Gen\Rba_FeeFs1\src\rba_FeeFs1_Cbk.c	   334              /* Fls_Write was finished with success */
; BSW\src\BSW\Gen\Rba_FeeFs1\src\rba_FeeFs1_Cbk.c	   335              Fee_RdWrOrder_st.Fee_LLCpyBlkFls2Fls_en = FEE_LL_CPY_FLS2FLS_HDRPG2_VERIFY_E;
	mov	d15,#19
.L169:
	st.w	[a2],d15
.L27:

; BSW\src\BSW\Gen\Rba_FeeFs1\src\rba_FeeFs1_Cbk.c	   336          }
; BSW\src\BSW\Gen\Rba_FeeFs1\src\rba_FeeFs1_Cbk.c	   337  
; BSW\src\BSW\Gen\Rba_FeeFs1\src\rba_FeeFs1_Cbk.c	   338          /* Switch state machine of the function Fee_LLCpyBlkFromFls2Fls */
; BSW\src\BSW\Gen\Rba_FeeFs1\src\rba_FeeFs1_Cbk.c	   339          if(Fee_RdWrOrder_st.Fee_LLCpyBlkFls2Fls_en == FEE_LL_CPY_FLS2FLS_WAIT_HDRPG1_VERIFY_E)
	ld.w	d0,[a2]
.L170:
	mov	d15,#8
.L171:
	jne	d15,d0,.L28
.L172:

; BSW\src\BSW\Gen\Rba_FeeFs1\src\rba_FeeFs1_Cbk.c	   340          {
; BSW\src\BSW\Gen\Rba_FeeFs1\src\rba_FeeFs1_Cbk.c	   341              /* Fls_Compare was finished with success */
; BSW\src\BSW\Gen\Rba_FeeFs1\src\rba_FeeFs1_Cbk.c	   342              /* Set to next state to program data if there is some more data bytes that can be programmed, else read the data first. */
; BSW\src\BSW\Gen\Rba_FeeFs1\src\rba_FeeFs1_Cbk.c	   343              if (Fee_LLSecReorgStruct_st.xNumBytesLeftToRdWr_u16 != 0)
	movh.a	a15,#@his(Fee_LLSecReorgStruct_st)
	lea	a15,[a15]@los(Fee_LLSecReorgStruct_st)
.L173:
	ld.hu	d15,[a15]6
.L174:
	jeq	d15,#0,.L29
.L175:

; BSW\src\BSW\Gen\Rba_FeeFs1\src\rba_FeeFs1_Cbk.c	   344              {
; BSW\src\BSW\Gen\Rba_FeeFs1\src\rba_FeeFs1_Cbk.c	   345                  /* There is some more data that was read and can be transfered, go directly to state FEE_LL_CPY_FLS2FLS_WRITE_E to transfer this data. */
; BSW\src\BSW\Gen\Rba_FeeFs1\src\rba_FeeFs1_Cbk.c	   346                  Fee_RdWrOrder_st.Fee_LLCpyBlkFls2Fls_en = FEE_LL_CPY_FLS2FLS_WRITE_E;
	mov	d15,#10
.L176:
	st.w	[a2],d15
.L177:
	j	.L30
.L29:

; BSW\src\BSW\Gen\Rba_FeeFs1\src\rba_FeeFs1_Cbk.c	   347              }
; BSW\src\BSW\Gen\Rba_FeeFs1\src\rba_FeeFs1_Cbk.c	   348              else
; BSW\src\BSW\Gen\Rba_FeeFs1\src\rba_FeeFs1_Cbk.c	   349              {
; BSW\src\BSW\Gen\Rba_FeeFs1\src\rba_FeeFs1_Cbk.c	   350                  /* There is no data read out, read the data first. */
; BSW\src\BSW\Gen\Rba_FeeFs1\src\rba_FeeFs1_Cbk.c	   351                  Fee_RdWrOrder_st.Fee_LLCpyBlkFls2Fls_en = FEE_LL_CPY_FLS2FLS_CHECK_ADR_OVERFLOW_E;
	mov	d15,#22
.L178:
	st.w	[a2],d15
.L179:

; BSW\src\BSW\Gen\Rba_FeeFs1\src\rba_FeeFs1_Cbk.c	   352  
; BSW\src\BSW\Gen\Rba_FeeFs1\src\rba_FeeFs1_Cbk.c	   353                  Fee_LLSecReorgStruct_st.xFirstDataPgPgm_u8 = FEE_FIRSTDATAPAGE_PROGRAMMED;
	mov	d15,#1
.L180:
	st.b	[a15]9,d15
.L30:
.L28:

; BSW\src\BSW\Gen\Rba_FeeFs1\src\rba_FeeFs1_Cbk.c	   354              }
; BSW\src\BSW\Gen\Rba_FeeFs1\src\rba_FeeFs1_Cbk.c	   355          }
; BSW\src\BSW\Gen\Rba_FeeFs1\src\rba_FeeFs1_Cbk.c	   356  #endif
; BSW\src\BSW\Gen\Rba_FeeFs1\src\rba_FeeFs1_Cbk.c	   357  
; BSW\src\BSW\Gen\Rba_FeeFs1\src\rba_FeeFs1_Cbk.c	   358          /* Switch state machine of the function Fee_LLCpyBlkFromFls2Fls */
; BSW\src\BSW\Gen\Rba_FeeFs1\src\rba_FeeFs1_Cbk.c	   359          if(Fee_RdWrOrder_st.Fee_LLCpyBlkFls2Fls_en == FEE_LL_CPY_FLS2FLS_WAIT_VERIFY_E)
	ld.w	d0,[a2]
.L181:
	mov	d15,#14
.L182:
	jne	d15,d0,.L31
.L183:

; BSW\src\BSW\Gen\Rba_FeeFs1\src\rba_FeeFs1_Cbk.c	   360          {
; BSW\src\BSW\Gen\Rba_FeeFs1\src\rba_FeeFs1_Cbk.c	   361              /* Fls_Compare was finished with success */
; BSW\src\BSW\Gen\Rba_FeeFs1\src\rba_FeeFs1_Cbk.c	   362              /* Set next state */
; BSW\src\BSW\Gen\Rba_FeeFs1\src\rba_FeeFs1_Cbk.c	   363              Fee_RdWrOrder_st.Fee_LLCpyBlkFls2Fls_en = FEE_LL_CPY_FLS2FLS_CHECK_ADR_OVERFLOW_E;
	mov	d15,#22
.L184:
	st.w	[a2],d15
.L31:

; BSW\src\BSW\Gen\Rba_FeeFs1\src\rba_FeeFs1_Cbk.c	   364          }
; BSW\src\BSW\Gen\Rba_FeeFs1\src\rba_FeeFs1_Cbk.c	   365  
; BSW\src\BSW\Gen\Rba_FeeFs1\src\rba_FeeFs1_Cbk.c	   366  #if (FEE_PAGES_USED_BY_BLK_HEADER == 2u)    /* Robust block programming states (Hdpg1 -> Data -> Hdpg2 write) */
; BSW\src\BSW\Gen\Rba_FeeFs1\src\rba_FeeFs1_Cbk.c	   367          /* Switch state machine of the function Fee_LLCpyBlkFromFls2Fls */
; BSW\src\BSW\Gen\Rba_FeeFs1\src\rba_FeeFs1_Cbk.c	   368          if(Fee_RdWrOrder_st.Fee_LLCpyBlkFls2Fls_en == FEE_LL_CPY_FLS2FLS_WAIT_HDRPG2_VERIFY_E)
	ld.w	d0,[a2]
.L185:
	mov	d15,#20
.L186:
	jne	d15,d0,.L32
.L187:

; BSW\src\BSW\Gen\Rba_FeeFs1\src\rba_FeeFs1_Cbk.c	   369          {
; BSW\src\BSW\Gen\Rba_FeeFs1\src\rba_FeeFs1_Cbk.c	   370              /* Fls_Compare was finished with success */
; BSW\src\BSW\Gen\Rba_FeeFs1\src\rba_FeeFs1_Cbk.c	   371              /* Set next state to exit the function (or to start programming of second copy) */
; BSW\src\BSW\Gen\Rba_FeeFs1\src\rba_FeeFs1_Cbk.c	   372              Fee_RdWrOrder_st.Fee_LLCpyBlkFls2Fls_en = FEE_LL_CPY_FLS2FLS_READ_E;
	mov	d15,#1
.L188:
	st.w	[a2],d15
.L32:
.L3:

; BSW\src\BSW\Gen\Rba_FeeFs1\src\rba_FeeFs1_Cbk.c	   373          }
; BSW\src\BSW\Gen\Rba_FeeFs1\src\rba_FeeFs1_Cbk.c	   374  #endif
; BSW\src\BSW\Gen\Rba_FeeFs1\src\rba_FeeFs1_Cbk.c	   375  
; BSW\src\BSW\Gen\Rba_FeeFs1\src\rba_FeeFs1_Cbk.c	   376  #if defined (FEE_PRV_ROBUST_SECT_OVERFLOW)
; BSW\src\BSW\Gen\Rba_FeeFs1\src\rba_FeeFs1_Cbk.c	   377      #if ( defined(RBA_FLSRH850P1xC_FLASH) || defined(RBA_FLSV850R1x_FLASH) || defined(RBA_FLSRH850xx_FLASH)) /* For Renesas controllers */
; BSW\src\BSW\Gen\Rba_FeeFs1\src\rba_FeeFs1_Cbk.c	   378          /* Switch state machine of the function Fee_LlRobustSectorOverflow */
; BSW\src\BSW\Gen\Rba_FeeFs1\src\rba_FeeFs1_Cbk.c	   379          if(Fee_RdWrOrder_st.Fee_LLRobustSectOverflow_en == FEE_LL_ROBUST_SECTOR_OVERFLOW_BLANK_CHK_WAIT_E)
; BSW\src\BSW\Gen\Rba_FeeFs1\src\rba_FeeFs1_Cbk.c	   380          {
; BSW\src\BSW\Gen\Rba_FeeFs1\src\rba_FeeFs1_Cbk.c	   381              /* Page is blank, skip transfer of this page and go back to read next page.  */
; BSW\src\BSW\Gen\Rba_FeeFs1\src\rba_FeeFs1_Cbk.c	   382              Fee_RdWrOrder_st.Fee_LLRobustSectOverflow_en = FEE_LL_ROBUST_SECTOR_OVERFLOW_VERIFY_SUCCESS_E;
; BSW\src\BSW\Gen\Rba_FeeFs1\src\rba_FeeFs1_Cbk.c	   383          }
; BSW\src\BSW\Gen\Rba_FeeFs1\src\rba_FeeFs1_Cbk.c	   384      #endif
; BSW\src\BSW\Gen\Rba_FeeFs1\src\rba_FeeFs1_Cbk.c	   385  
; BSW\src\BSW\Gen\Rba_FeeFs1\src\rba_FeeFs1_Cbk.c	   386          /* Switch state machine of the function Fee_LlRobustSectorOverflow */
; BSW\src\BSW\Gen\Rba_FeeFs1\src\rba_FeeFs1_Cbk.c	   387          if(Fee_RdWrOrder_st.Fee_LLRobustSectOverflow_en == FEE_LL_ROBUST_SECTOR_OVERFLOW_READ_PAGE_WAIT_E)
; BSW\src\BSW\Gen\Rba_FeeFs1\src\rba_FeeFs1_Cbk.c	   388          {
; BSW\src\BSW\Gen\Rba_FeeFs1\src\rba_FeeFs1_Cbk.c	   389              /* Page was read successfully, program this to new sector.  */
; BSW\src\BSW\Gen\Rba_FeeFs1\src\rba_FeeFs1_Cbk.c	   390              Fee_RdWrOrder_st.Fee_LLRobustSectOverflow_en = FEE_LL_ROBUST_SECTOR_OVERFLOW_COPY_DATA_E;
; BSW\src\BSW\Gen\Rba_FeeFs1\src\rba_FeeFs1_Cbk.c	   391          }
; BSW\src\BSW\Gen\Rba_FeeFs1\src\rba_FeeFs1_Cbk.c	   392  
; BSW\src\BSW\Gen\Rba_FeeFs1\src\rba_FeeFs1_Cbk.c	   393          /* Switch state machine of the function Fee_LlRobustSectorOverflow */
; BSW\src\BSW\Gen\Rba_FeeFs1\src\rba_FeeFs1_Cbk.c	   394          if(Fee_RdWrOrder_st.Fee_LLRobustSectOverflow_en == FEE_LL_ROBUST_SECTOR_OVERFLOW_COPY_DATA_WAIT_E)
; BSW\src\BSW\Gen\Rba_FeeFs1\src\rba_FeeFs1_Cbk.c	   395          {
; BSW\src\BSW\Gen\Rba_FeeFs1\src\rba_FeeFs1_Cbk.c	   396              /* Page was programmed successfully, verify the same.  */
; BSW\src\BSW\Gen\Rba_FeeFs1\src\rba_FeeFs1_Cbk.c	   397              Fee_RdWrOrder_st.Fee_LLRobustSectOverflow_en = FEE_LL_ROBUST_SECTOR_OVERFLOW_VERIFY_DATA_E;
; BSW\src\BSW\Gen\Rba_FeeFs1\src\rba_FeeFs1_Cbk.c	   398          }
; BSW\src\BSW\Gen\Rba_FeeFs1\src\rba_FeeFs1_Cbk.c	   399  
; BSW\src\BSW\Gen\Rba_FeeFs1\src\rba_FeeFs1_Cbk.c	   400          /* Switch state machine of the function Fee_LlRobustSectorOverflow */
; BSW\src\BSW\Gen\Rba_FeeFs1\src\rba_FeeFs1_Cbk.c	   401          if(Fee_RdWrOrder_st.Fee_LLRobustSectOverflow_en == FEE_LL_ROBUST_SECTOR_OVERFLOW_VERIFY_DATA_WAIT_E)
; BSW\src\BSW\Gen\Rba_FeeFs1\src\rba_FeeFs1_Cbk.c	   402          {
; BSW\src\BSW\Gen\Rba_FeeFs1\src\rba_FeeFs1_Cbk.c	   403              /* Verification was successfull, check if there is more bytes left to transfer.  */
; BSW\src\BSW\Gen\Rba_FeeFs1\src\rba_FeeFs1_Cbk.c	   404              Fee_RdWrOrder_st.Fee_LLRobustSectOverflow_en = FEE_LL_ROBUST_SECTOR_OVERFLOW_VERIFY_SUCCESS_E;
; BSW\src\BSW\Gen\Rba_FeeFs1\src\rba_FeeFs1_Cbk.c	   405          }
; BSW\src\BSW\Gen\Rba_FeeFs1\src\rba_FeeFs1_Cbk.c	   406  #endif /*#if defined (FEE_PRV_ROBUST_SECT_OVERFLOW)*/
; BSW\src\BSW\Gen\Rba_FeeFs1\src\rba_FeeFs1_Cbk.c	   407  
; BSW\src\BSW\Gen\Rba_FeeFs1\src\rba_FeeFs1_Cbk.c	   408          #if(FEE_ROBUST_PROG_ACTIVE != FALSE)
; BSW\src\BSW\Gen\Rba_FeeFs1\src\rba_FeeFs1_Cbk.c	   409          /* robust Ifx Handling */
; BSW\src\BSW\Gen\Rba_FeeFs1\src\rba_FeeFs1_Cbk.c	   410          if (Fee_RobIfxHdl == FEE_ROB_IFX_STORE_BUFFER_WAIT)
; BSW\src\BSW\Gen\Rba_FeeFs1\src\rba_FeeFs1_Cbk.c	   411          {
; BSW\src\BSW\Gen\Rba_FeeFs1\src\rba_FeeFs1_Cbk.c	   412              Fee_RobIfxHdl = FEE_ROB_IFX_COPY_DATA;
; BSW\src\BSW\Gen\Rba_FeeFs1\src\rba_FeeFs1_Cbk.c	   413          }
; BSW\src\BSW\Gen\Rba_FeeFs1\src\rba_FeeFs1_Cbk.c	   414  
; BSW\src\BSW\Gen\Rba_FeeFs1\src\rba_FeeFs1_Cbk.c	   415          if (Fee_RobIfxHdl == FEE_ROB_IFX_STORE_COPY_WAIT)
; BSW\src\BSW\Gen\Rba_FeeFs1\src\rba_FeeFs1_Cbk.c	   416          {
; BSW\src\BSW\Gen\Rba_FeeFs1\src\rba_FeeFs1_Cbk.c	   417              Fee_RobIfxHdl = FEE_ROB_IFX_WRITE_USED_MARK_SECTOR;
; BSW\src\BSW\Gen\Rba_FeeFs1\src\rba_FeeFs1_Cbk.c	   418          }
; BSW\src\BSW\Gen\Rba_FeeFs1\src\rba_FeeFs1_Cbk.c	   419          #endif
; BSW\src\BSW\Gen\Rba_FeeFs1\src\rba_FeeFs1_Cbk.c	   420  
; BSW\src\BSW\Gen\Rba_FeeFs1\src\rba_FeeFs1_Cbk.c	   421          #if((FEE_RB_ACT_UNKNOWN_BLOCK_REORG != FALSE) && (FEE_RB_ACT_UNKNOWN_BLOCK_CACHE_SIZE != 0))
; BSW\src\BSW\Gen\Rba_FeeFs1\src\rba_FeeFs1_Cbk.c	   422          /* Unknown block sector reorganisation with cache:
; BSW\src\BSW\Gen\Rba_FeeFs1\src\rba_FeeFs1_Cbk.c	   423           * Reading of header page of unknown block during sector change to extract the lenght and status flag. */
; BSW\src\BSW\Gen\Rba_FeeFs1\src\rba_FeeFs1_Cbk.c	   424          if (Fee_RdWrOrder_st.Fee_LLSecReorg_en == FEE_LL_REORG_SEARCH_UNK_HDRBLK_WAIT_E)
; BSW\src\BSW\Gen\Rba_FeeFs1\src\rba_FeeFs1_Cbk.c	   425          {
; BSW\src\BSW\Gen\Rba_FeeFs1\src\rba_FeeFs1_Cbk.c	   426              Fee_RdWrOrder_st.Fee_LLSecReorg_en = FEE_LL_REORG_SEARCH_UNK_HDRBLK_READ_FINISHED_E;
; BSW\src\BSW\Gen\Rba_FeeFs1\src\rba_FeeFs1_Cbk.c	   427          }
; BSW\src\BSW\Gen\Rba_FeeFs1\src\rba_FeeFs1_Cbk.c	   428          #endif
; BSW\src\BSW\Gen\Rba_FeeFs1\src\rba_FeeFs1_Cbk.c	   429      }
; BSW\src\BSW\Gen\Rba_FeeFs1\src\rba_FeeFs1_Cbk.c	   430  }
	ret
.L75:
	
__Fee_SwitchJobEndNotification_function_end:
	.size	Fee_SwitchJobEndNotification,__Fee_SwitchJobEndNotification_function_end-Fee_SwitchJobEndNotification
.L69:
	; End of function
	
	.sdecl	'.text.rba_FeeFs1_Cbk.Fee_SwitchJobErrorNotification',code,cluster('Fee_SwitchJobErrorNotification')
	.sect	'.text.rba_FeeFs1_Cbk.Fee_SwitchJobErrorNotification'
	.align	2
	
	.global	Fee_SwitchJobErrorNotification

; BSW\src\BSW\Gen\Rba_FeeFs1\src\rba_FeeFs1_Cbk.c	   431  #define FEE_STOP_SEC_CODE
; BSW\src\BSW\Gen\Rba_FeeFs1\src\rba_FeeFs1_Cbk.c	   432  #include "Fee_MemMap.h"
; BSW\src\BSW\Gen\Rba_FeeFs1\src\rba_FeeFs1_Cbk.c	   433  
; BSW\src\BSW\Gen\Rba_FeeFs1\src\rba_FeeFs1_Cbk.c	   434  /**
; BSW\src\BSW\Gen\Rba_FeeFs1\src\rba_FeeFs1_Cbk.c	   435   *********************************************************************
; BSW\src\BSW\Gen\Rba_FeeFs1\src\rba_FeeFs1_Cbk.c	   436   * Fee_JobEndNotification(): Service for reporting an unsuccessful end
; BSW\src\BSW\Gen\Rba_FeeFs1\src\rba_FeeFs1_Cbk.c	   437   *                           of an asynchronous operation.
; BSW\src\BSW\Gen\Rba_FeeFs1\src\rba_FeeFs1_Cbk.c	   438   *
; BSW\src\BSW\Gen\Rba_FeeFs1\src\rba_FeeFs1_Cbk.c	   439   * This function reports an unsuccessful end of an asynchronous
; BSW\src\BSW\Gen\Rba_FeeFs1\src\rba_FeeFs1_Cbk.c	   440   * operation (FEE096). The function call has to be configured in the
; BSW\src\BSW\Gen\Rba_FeeFs1\src\rba_FeeFs1_Cbk.c	   441   * Fls module in order to be called automatically whenever an
; BSW\src\BSW\Gen\Rba_FeeFs1\src\rba_FeeFs1_Cbk.c	   442   * asynchronous operation was finished. Alternatively the
; BSW\src\BSW\Gen\Rba_FeeFs1\src\rba_FeeFs1_Cbk.c	   443   * Fls_GetJobResult() functionality can be used depending on
; BSW\src\BSW\Gen\Rba_FeeFs1\src\rba_FeeFs1_Cbk.c	   444   * "FEE_POLLING_MODE".
; BSW\src\BSW\Gen\Rba_FeeFs1\src\rba_FeeFs1_Cbk.c	   445   *
; BSW\src\BSW\Gen\Rba_FeeFs1\src\rba_FeeFs1_Cbk.c	   446   * Hint:
; BSW\src\BSW\Gen\Rba_FeeFs1\src\rba_FeeFs1_Cbk.c	   447   * Deviation from the AR SWS:
; BSW\src\BSW\Gen\Rba_FeeFs1\src\rba_FeeFs1_Cbk.c	   448   * - Whether a read or write operation is finished cannot be detected
; BSW\src\BSW\Gen\Rba_FeeFs1\src\rba_FeeFs1_Cbk.c	   449   *   within this function (function call can be interrupt level).
; BSW\src\BSW\Gen\Rba_FeeFs1\src\rba_FeeFs1_Cbk.c	   450   *   A finished block will be detected in the Fee_MainFunction.
; BSW\src\BSW\Gen\Rba_FeeFs1\src\rba_FeeFs1_Cbk.c	   451   *   --> FEE054 and FEE143 is realized there
; BSW\src\BSW\Gen\Rba_FeeFs1\src\rba_FeeFs1_Cbk.c	   452   * - FEE054: The function Fee_JobErrorNotification shall perform any
; BSW\src\BSW\Gen\Rba_FeeFs1\src\rba_FeeFs1_Cbk.c	   453   *   necessary block management operations and subsequently call
; BSW\src\BSW\Gen\Rba_FeeFs1\src\rba_FeeFs1_Cbk.c	   454   *   the job end notification routine of the upper layer module if
; BSW\src\BSW\Gen\Rba_FeeFs1\src\rba_FeeFs1_Cbk.c	   455   *   configured.
; BSW\src\BSW\Gen\Rba_FeeFs1\src\rba_FeeFs1_Cbk.c	   456   * - FEE143: If the job result is currently MEMIF_JOB_PENDING, the
; BSW\src\BSW\Gen\Rba_FeeFs1\src\rba_FeeFs1_Cbk.c	   457   *   function Fee_JobErrorNotification shall set the job result to
; BSW\src\BSW\Gen\Rba_FeeFs1\src\rba_FeeFs1_Cbk.c	   458   *   MEMIF_JOB_OK, else it shall leave the job result untouched.
; BSW\src\BSW\Gen\Rba_FeeFs1\src\rba_FeeFs1_Cbk.c	   459   *
; BSW\src\BSW\Gen\Rba_FeeFs1\src\rba_FeeFs1_Cbk.c	   460   * Note:
; BSW\src\BSW\Gen\Rba_FeeFs1\src\rba_FeeFs1_Cbk.c	   461   * The function Fee_JobErrorNotification shall be callable on
; BSW\src\BSW\Gen\Rba_FeeFs1\src\rba_FeeFs1_Cbk.c	   462   * interrupt level.
; BSW\src\BSW\Gen\Rba_FeeFs1\src\rba_FeeFs1_Cbk.c	   463   *
; BSW\src\BSW\Gen\Rba_FeeFs1\src\rba_FeeFs1_Cbk.c	   464   * \param    none
; BSW\src\BSW\Gen\Rba_FeeFs1\src\rba_FeeFs1_Cbk.c	   465   * \return
; BSW\src\BSW\Gen\Rba_FeeFs1\src\rba_FeeFs1_Cbk.c	   466   * \retval   none
; BSW\src\BSW\Gen\Rba_FeeFs1\src\rba_FeeFs1_Cbk.c	   467   * \seealso
; BSW\src\BSW\Gen\Rba_FeeFs1\src\rba_FeeFs1_Cbk.c	   468   * \usedresources
; BSW\src\BSW\Gen\Rba_FeeFs1\src\rba_FeeFs1_Cbk.c	   469   *********************************************************************
; BSW\src\BSW\Gen\Rba_FeeFs1\src\rba_FeeFs1_Cbk.c	   470   */
; BSW\src\BSW\Gen\Rba_FeeFs1\src\rba_FeeFs1_Cbk.c	   471  #if (STD_OFF == FEE_POLLING_MODE)
; BSW\src\BSW\Gen\Rba_FeeFs1\src\rba_FeeFs1_Cbk.c	   472  #define FEE_START_SEC_CODE
; BSW\src\BSW\Gen\Rba_FeeFs1\src\rba_FeeFs1_Cbk.c	   473  #include "Fee_MemMap.h"
; BSW\src\BSW\Gen\Rba_FeeFs1\src\rba_FeeFs1_Cbk.c	   474  FUNC(void, FEE_CODE) Fee_JobErrorNotification(void)
; BSW\src\BSW\Gen\Rba_FeeFs1\src\rba_FeeFs1_Cbk.c	   475  #else
; BSW\src\BSW\Gen\Rba_FeeFs1\src\rba_FeeFs1_Cbk.c	   476  #define FEE_START_SEC_CODE
; BSW\src\BSW\Gen\Rba_FeeFs1\src\rba_FeeFs1_Cbk.c	   477  #include "Fee_MemMap.h"
; BSW\src\BSW\Gen\Rba_FeeFs1\src\rba_FeeFs1_Cbk.c	   478  FUNC(void, FEE_CODE) Fee_SwitchJobErrorNotification(void)
; Function Fee_SwitchJobErrorNotification
.L60:
Fee_SwitchJobErrorNotification:	.type	func

; BSW\src\BSW\Gen\Rba_FeeFs1\src\rba_FeeFs1_Cbk.c	   479  #endif
; BSW\src\BSW\Gen\Rba_FeeFs1\src\rba_FeeFs1_Cbk.c	   480  {
; BSW\src\BSW\Gen\Rba_FeeFs1\src\rba_FeeFs1_Cbk.c	   481      /* Switch the read state machine */
; BSW\src\BSW\Gen\Rba_FeeFs1\src\rba_FeeFs1_Cbk.c	   482      if(Fee_RdWrOrder_st.Fee_LLRdState_en == FEE_LL_WAIT_READ_PAGE_E)
	movh.a	a5,#@his(Fee_RdWrOrder_st)
	lea	a5,[a5]@los(Fee_RdWrOrder_st)
.L193:
	lea	a15,[a5]92
	ld.w	d15,[a15]
.L194:
	jne	d15,#4,.L33
.L195:

; BSW\src\BSW\Gen\Rba_FeeFs1\src\rba_FeeFs1_Cbk.c	   483      {
; BSW\src\BSW\Gen\Rba_FeeFs1\src\rba_FeeFs1_Cbk.c	   484          /* Fls_Read was finished without success */
; BSW\src\BSW\Gen\Rba_FeeFs1\src\rba_FeeFs1_Cbk.c	   485          Fee_RdWrOrder_st.Fee_LLRdState_en = FEE_LL_READ_ERROR_E;
	mov	d15,#5
.L196:
	st.w	[a15],d15
.L33:

; BSW\src\BSW\Gen\Rba_FeeFs1\src\rba_FeeFs1_Cbk.c	   486      }
; BSW\src\BSW\Gen\Rba_FeeFs1\src\rba_FeeFs1_Cbk.c	   487  
; BSW\src\BSW\Gen\Rba_FeeFs1\src\rba_FeeFs1_Cbk.c	   488      /* Switch the read state machine */
; BSW\src\BSW\Gen\Rba_FeeFs1\src\rba_FeeFs1_Cbk.c	   489      if(Fee_RdWrOrder_st.Fee_LLRdState_en == FEE_LL_BLANK_CHECK_WAIT_E)
	ld.w	d15,[a15]
.L197:
	jne	d15,#2,.L34
.L198:

; BSW\src\BSW\Gen\Rba_FeeFs1\src\rba_FeeFs1_Cbk.c	   490      {
; BSW\src\BSW\Gen\Rba_FeeFs1\src\rba_FeeFs1_Cbk.c	   491          /* Fls_Rb_BlankCheck was finished without success */
; BSW\src\BSW\Gen\Rba_FeeFs1\src\rba_FeeFs1_Cbk.c	   492          Fee_RdWrOrder_st.Fee_LLRdState_en = FEE_LL_READ_PAGE_E;
	mov	d15,#3
.L199:
	st.w	[a15],d15
.L34:

; BSW\src\BSW\Gen\Rba_FeeFs1\src\rba_FeeFs1_Cbk.c	   493      }
; BSW\src\BSW\Gen\Rba_FeeFs1\src\rba_FeeFs1_Cbk.c	   494  
; BSW\src\BSW\Gen\Rba_FeeFs1\src\rba_FeeFs1_Cbk.c	   495      /* Switch the sector detection state machine */
; BSW\src\BSW\Gen\Rba_FeeFs1\src\rba_FeeFs1_Cbk.c	   496  #if (defined(RBA_FLSRH850P1xC_FLASH) || defined(RBA_FLSV850R1x_FLASH) || defined(RBA_FLSRH850xx_FLASH))
; BSW\src\BSW\Gen\Rba_FeeFs1\src\rba_FeeFs1_Cbk.c	   497      if(Fee_RdWrOrder_st.Fee_LLFindEmptyPageState_en == FEE_LL_FINDEMPTYPGE_WAIT_E)
; BSW\src\BSW\Gen\Rba_FeeFs1\src\rba_FeeFs1_Cbk.c	   498      {
; BSW\src\BSW\Gen\Rba_FeeFs1\src\rba_FeeFs1_Cbk.c	   499          /* Chunk is not blank */
; BSW\src\BSW\Gen\Rba_FeeFs1\src\rba_FeeFs1_Cbk.c	   500          Fee_RdWrOrder_st.Fee_LLFindEmptyPageState_en = FEE_LL_FINDEMPTYPGE_RESULT_NOT_BLANK_E;
; BSW\src\BSW\Gen\Rba_FeeFs1\src\rba_FeeFs1_Cbk.c	   501      }
; BSW\src\BSW\Gen\Rba_FeeFs1\src\rba_FeeFs1_Cbk.c	   502  #endif
; BSW\src\BSW\Gen\Rba_FeeFs1\src\rba_FeeFs1_Cbk.c	   503  
; BSW\src\BSW\Gen\Rba_FeeFs1\src\rba_FeeFs1_Cbk.c	   504      /* Switch the blank check state machine */
; BSW\src\BSW\Gen\Rba_FeeFs1\src\rba_FeeFs1_Cbk.c	   505      if(Fee_RdWrOrder_st.Fee_LLBlankCheckState_en == FEE_LL_WAIT_PERFORM_BLANK_CHECK_E)
	lea	a15,[a5]96
	ld.w	d15,[a15]
.L200:
	jne	d15,#2,.L35
.L201:

; BSW\src\BSW\Gen\Rba_FeeFs1\src\rba_FeeFs1_Cbk.c	   506      {
; BSW\src\BSW\Gen\Rba_FeeFs1\src\rba_FeeFs1_Cbk.c	   507          /* Blank check detected differences */
; BSW\src\BSW\Gen\Rba_FeeFs1\src\rba_FeeFs1_Cbk.c	   508          Fee_RdWrOrder_st.Fee_LLBlankCheckState_en = FEE_LL_BLANK_CHECK_ERROR_E;
	mov	d15,#3
.L202:
	st.w	[a15],d15
.L35:

; BSW\src\BSW\Gen\Rba_FeeFs1\src\rba_FeeFs1_Cbk.c	   509      }
; BSW\src\BSW\Gen\Rba_FeeFs1\src\rba_FeeFs1_Cbk.c	   510  
; BSW\src\BSW\Gen\Rba_FeeFs1\src\rba_FeeFs1_Cbk.c	   511      /* Switch the state machine of the function Fee_LLWriteMarker */
; BSW\src\BSW\Gen\Rba_FeeFs1\src\rba_FeeFs1_Cbk.c	   512      if(Fee_RdWrOrder_st.Fee_LLWrMarker_en == FEE_LL_MARKER_BLK_CHK_WAIT_E)
	lea	a15,[a5]88
	ld.w	d15,[a15]
.L203:
	jne	d15,#2,.L36
.L204:

; BSW\src\BSW\Gen\Rba_FeeFs1\src\rba_FeeFs1_Cbk.c	   513      {
; BSW\src\BSW\Gen\Rba_FeeFs1\src\rba_FeeFs1_Cbk.c	   514          /* Fls_BlankCheck was finished without success */
; BSW\src\BSW\Gen\Rba_FeeFs1\src\rba_FeeFs1_Cbk.c	   515          Fee_RdWrOrder_st.Fee_LLWrMarker_en = FEE_LL_MARKER_BLK_CHK_ERROR_E;
	mov	d15,#3
.L205:
	st.w	[a15],d15
.L36:

; BSW\src\BSW\Gen\Rba_FeeFs1\src\rba_FeeFs1_Cbk.c	   516      }
; BSW\src\BSW\Gen\Rba_FeeFs1\src\rba_FeeFs1_Cbk.c	   517  
; BSW\src\BSW\Gen\Rba_FeeFs1\src\rba_FeeFs1_Cbk.c	   518      /* Switch the state machine of the function Fee_LLWriteMarker */
; BSW\src\BSW\Gen\Rba_FeeFs1\src\rba_FeeFs1_Cbk.c	   519      if(Fee_RdWrOrder_st.Fee_LLWrMarker_en == FEE_LL_MARKER_WRITE_WAIT_E)
	ld.w	d15,[a15]
.L206:
	jne	d15,#5,.L37
.L207:

; BSW\src\BSW\Gen\Rba_FeeFs1\src\rba_FeeFs1_Cbk.c	   520      {
; BSW\src\BSW\Gen\Rba_FeeFs1\src\rba_FeeFs1_Cbk.c	   521          /* Fls_Write was finished without success */
; BSW\src\BSW\Gen\Rba_FeeFs1\src\rba_FeeFs1_Cbk.c	   522          Fee_RdWrOrder_st.Fee_LLWrMarker_en = FEE_LL_MARKER_WRITE_ERROR_E;
	mov	d15,#6
.L208:
	st.w	[a15],d15
.L37:

; BSW\src\BSW\Gen\Rba_FeeFs1\src\rba_FeeFs1_Cbk.c	   523      }
; BSW\src\BSW\Gen\Rba_FeeFs1\src\rba_FeeFs1_Cbk.c	   524  
; BSW\src\BSW\Gen\Rba_FeeFs1\src\rba_FeeFs1_Cbk.c	   525      /* Switch the state machine of the function Fee_LLWriteMarker */
; BSW\src\BSW\Gen\Rba_FeeFs1\src\rba_FeeFs1_Cbk.c	   526      if(Fee_RdWrOrder_st.Fee_LLWrMarker_en == FEE_LL_MARKER_VERIFY_WAIT_E)
	ld.w	d0,[a15]
.L209:
	mov	d15,#8
.L210:
	jne	d15,d0,.L38
.L211:

; BSW\src\BSW\Gen\Rba_FeeFs1\src\rba_FeeFs1_Cbk.c	   527      {
; BSW\src\BSW\Gen\Rba_FeeFs1\src\rba_FeeFs1_Cbk.c	   528          /* Fls_Write was finished without success */
; BSW\src\BSW\Gen\Rba_FeeFs1\src\rba_FeeFs1_Cbk.c	   529          Fee_RdWrOrder_st.Fee_LLWrMarker_en = FEE_LL_MARKER_WRITE_ERROR_E;
	mov	d15,#6
.L212:
	st.w	[a15],d15
.L38:

; BSW\src\BSW\Gen\Rba_FeeFs1\src\rba_FeeFs1_Cbk.c	   530      }
; BSW\src\BSW\Gen\Rba_FeeFs1\src\rba_FeeFs1_Cbk.c	   531  
; BSW\src\BSW\Gen\Rba_FeeFs1\src\rba_FeeFs1_Cbk.c	   532  #if (FEE_HEADER_RECHECK_ACTIVE != FALSE)
; BSW\src\BSW\Gen\Rba_FeeFs1\src\rba_FeeFs1_Cbk.c	   533      /* Switch state machine of the function Fee_LLSearchNextBlkHeader */
; BSW\src\BSW\Gen\Rba_FeeFs1\src\rba_FeeFs1_Cbk.c	   534      if(Fee_RdWrOrder_st.Fee_LLRdState_en == FEE_LL_RECHECK_HEADER_WAIT_E)
; BSW\src\BSW\Gen\Rba_FeeFs1\src\rba_FeeFs1_Cbk.c	   535      {
; BSW\src\BSW\Gen\Rba_FeeFs1\src\rba_FeeFs1_Cbk.c	   536          /* Fls_Rb_BlankCheck was finished with success */
; BSW\src\BSW\Gen\Rba_FeeFs1\src\rba_FeeFs1_Cbk.c	   537          Fee_RdWrOrder_st.Fee_LLRdState_en = FEE_LL_RECHECK_HEADER_FINISHED_E;
; BSW\src\BSW\Gen\Rba_FeeFs1\src\rba_FeeFs1_Cbk.c	   538      }
; BSW\src\BSW\Gen\Rba_FeeFs1\src\rba_FeeFs1_Cbk.c	   539  
; BSW\src\BSW\Gen\Rba_FeeFs1\src\rba_FeeFs1_Cbk.c	   540  #if (FEE_NO_FALLBACK_ACTIVE != FALSE)
; BSW\src\BSW\Gen\Rba_FeeFs1\src\rba_FeeFs1_Cbk.c	   541      /* Switch the read state machine */
; BSW\src\BSW\Gen\Rba_FeeFs1\src\rba_FeeFs1_Cbk.c	   542      if(Fee_RdWrOrder_st.Fee_LLRdState_en == FEE_LL_NOFALLBACK_MARKER_CHECK_WAIT_E)
; BSW\src\BSW\Gen\Rba_FeeFs1\src\rba_FeeFs1_Cbk.c	   543      {
; BSW\src\BSW\Gen\Rba_FeeFs1\src\rba_FeeFs1_Cbk.c	   544          /* Fls_Rb_BlankCheck was not finished with success */
; BSW\src\BSW\Gen\Rba_FeeFs1\src\rba_FeeFs1_Cbk.c	   545          Fee_RdWrOrder_st.Fee_LLRdState_en = FEE_LL_NOFALLBACK_MARKER_CHECK_FAILED_E;
; BSW\src\BSW\Gen\Rba_FeeFs1\src\rba_FeeFs1_Cbk.c	   546      }
; BSW\src\BSW\Gen\Rba_FeeFs1\src\rba_FeeFs1_Cbk.c	   547  
; BSW\src\BSW\Gen\Rba_FeeFs1\src\rba_FeeFs1_Cbk.c	   548      /* Switch state machine of the function Fee_LLWriteBlock */
; BSW\src\BSW\Gen\Rba_FeeFs1\src\rba_FeeFs1_Cbk.c	   549      if(Fee_RdWrOrder_st.Fee_LLWrBlock_en == FEE_LL_WR_WRITE_NOFB_MARKER_WAIT_E)
; BSW\src\BSW\Gen\Rba_FeeFs1\src\rba_FeeFs1_Cbk.c	   550      {
; BSW\src\BSW\Gen\Rba_FeeFs1\src\rba_FeeFs1_Cbk.c	   551          /* Fls_Write was not finished with success */
; BSW\src\BSW\Gen\Rba_FeeFs1\src\rba_FeeFs1_Cbk.c	   552          Fee_RdWrOrder_st.Fee_LLWrBlock_en = FEE_LL_WR_WRITE_NOFB_MARKER_ERROR_E;
; BSW\src\BSW\Gen\Rba_FeeFs1\src\rba_FeeFs1_Cbk.c	   553      }
; BSW\src\BSW\Gen\Rba_FeeFs1\src\rba_FeeFs1_Cbk.c	   554  
; BSW\src\BSW\Gen\Rba_FeeFs1\src\rba_FeeFs1_Cbk.c	   555      /* Switch state machine of the function Fee_LLWriteBlock */
; BSW\src\BSW\Gen\Rba_FeeFs1\src\rba_FeeFs1_Cbk.c	   556      if(Fee_RdWrOrder_st.Fee_LLWrBlock_en == FEE_LL_WR_FILL_SECTOR_END_WAIT_E)
; BSW\src\BSW\Gen\Rba_FeeFs1\src\rba_FeeFs1_Cbk.c	   557      {
; BSW\src\BSW\Gen\Rba_FeeFs1\src\rba_FeeFs1_Cbk.c	   558          /* Fls_Write was finished with success */
; BSW\src\BSW\Gen\Rba_FeeFs1\src\rba_FeeFs1_Cbk.c	   559          Fee_RdWrOrder_st.Fee_LLWrBlock_en = FEE_LL_WR_FILL_SECTOR_END_ERROR_E;
; BSW\src\BSW\Gen\Rba_FeeFs1\src\rba_FeeFs1_Cbk.c	   560      }
; BSW\src\BSW\Gen\Rba_FeeFs1\src\rba_FeeFs1_Cbk.c	   561  
; BSW\src\BSW\Gen\Rba_FeeFs1\src\rba_FeeFs1_Cbk.c	   562      /* Switch state machine of the function Fee_LLCpyBlkFromFls2Fls */
; BSW\src\BSW\Gen\Rba_FeeFs1\src\rba_FeeFs1_Cbk.c	   563      if(Fee_RdWrOrder_st.Fee_LLCpyBlkFls2Fls_en == FEE_LL_CPY_FLS2FLS_WAIT_FILL_SECTOR_END_E)
; BSW\src\BSW\Gen\Rba_FeeFs1\src\rba_FeeFs1_Cbk.c	   564      {
; BSW\src\BSW\Gen\Rba_FeeFs1\src\rba_FeeFs1_Cbk.c	   565          Fee_RdWrOrder_st.Fee_LLCpyBlkFls2Fls_en = FEE_LL_CPY_FLS2FLS_FILL_SECTOR_END_ERROR_E;
; BSW\src\BSW\Gen\Rba_FeeFs1\src\rba_FeeFs1_Cbk.c	   566      }
; BSW\src\BSW\Gen\Rba_FeeFs1\src\rba_FeeFs1_Cbk.c	   567  
; BSW\src\BSW\Gen\Rba_FeeFs1\src\rba_FeeFs1_Cbk.c	   568      /* Switch state machine of the function Fee_LLCpyBlkFromFls2Fls */
; BSW\src\BSW\Gen\Rba_FeeFs1\src\rba_FeeFs1_Cbk.c	   569      if(Fee_RdWrOrder_st.Fee_LLCpyBlkFls2Fls_en == FEE_LL_CPY_FLS2FLS_WAIT_WRITE_NOFB_MARKER_E)
; BSW\src\BSW\Gen\Rba_FeeFs1\src\rba_FeeFs1_Cbk.c	   570      {
; BSW\src\BSW\Gen\Rba_FeeFs1\src\rba_FeeFs1_Cbk.c	   571          Fee_RdWrOrder_st.Fee_LLCpyBlkFls2Fls_en = FEE_LL_CPY_FLS2FLS_WRITE_NOFB_MARKER_ERROR_E;
; BSW\src\BSW\Gen\Rba_FeeFs1\src\rba_FeeFs1_Cbk.c	   572      }
; BSW\src\BSW\Gen\Rba_FeeFs1\src\rba_FeeFs1_Cbk.c	   573  /* FEE_NO_FALLBACK_ACTIVE != FALSE */
; BSW\src\BSW\Gen\Rba_FeeFs1\src\rba_FeeFs1_Cbk.c	   574  #endif
; BSW\src\BSW\Gen\Rba_FeeFs1\src\rba_FeeFs1_Cbk.c	   575  /* FEE_HEADER_RECHECK_ACTIVE != FALSE */
; BSW\src\BSW\Gen\Rba_FeeFs1\src\rba_FeeFs1_Cbk.c	   576  #endif
; BSW\src\BSW\Gen\Rba_FeeFs1\src\rba_FeeFs1_Cbk.c	   577  
; BSW\src\BSW\Gen\Rba_FeeFs1\src\rba_FeeFs1_Cbk.c	   578      /* Switch state machine of the function Fee_LLWriteBlock */
; BSW\src\BSW\Gen\Rba_FeeFs1\src\rba_FeeFs1_Cbk.c	   579      if(Fee_RdWrOrder_st.Fee_LLWrBlock_en == FEE_LL_WR_VERIFYHEADER_WAIT_E)
	lea	a2,[a5]60
	ld.w	d15,[a2]
.L213:
	jne	d15,#5,.L39
.L214:

; BSW\src\BSW\Gen\Rba_FeeFs1\src\rba_FeeFs1_Cbk.c	   580      {
; BSW\src\BSW\Gen\Rba_FeeFs1\src\rba_FeeFs1_Cbk.c	   581          /* Fls_Compare was finished without success */
; BSW\src\BSW\Gen\Rba_FeeFs1\src\rba_FeeFs1_Cbk.c	   582          Fee_RdWrOrder_st.Fee_LLWrBlock_en = FEE_LL_WR_VERIFYHEADER_ERROR_E;
	mov	d15,#6
.L215:
	st.w	[a2],d15
.L39:

; BSW\src\BSW\Gen\Rba_FeeFs1\src\rba_FeeFs1_Cbk.c	   583      }
; BSW\src\BSW\Gen\Rba_FeeFs1\src\rba_FeeFs1_Cbk.c	   584  
; BSW\src\BSW\Gen\Rba_FeeFs1\src\rba_FeeFs1_Cbk.c	   585  #if(FEE_RB_MAINTAIN != FALSE)
; BSW\src\BSW\Gen\Rba_FeeFs1\src\rba_FeeFs1_Cbk.c	   586      /* Switch the state machine of the function Fee_HlMaintainBlock */
; BSW\src\BSW\Gen\Rba_FeeFs1\src\rba_FeeFs1_Cbk.c	   587      if(Fee_RdWrOrder_st.Fee_HLMtBlock_en == FEE_HL_READ_BLK_HDR_WAIT_E)
	lea	a15,[a5]56
	ld.w	d15,[a15]
.L216:
	jne	d15,#2,.L40
.L217:

; BSW\src\BSW\Gen\Rba_FeeFs1\src\rba_FeeFs1_Cbk.c	   588      {
; BSW\src\BSW\Gen\Rba_FeeFs1\src\rba_FeeFs1_Cbk.c	   589          /* Fls_Read was finished without success, repair this block directly */
; BSW\src\BSW\Gen\Rba_FeeFs1\src\rba_FeeFs1_Cbk.c	   590          Fee_RdWrOrder_st.Fee_HLMtBlock_en = FEE_HL_WR_BLK_E;
	mov	d15,#8
.L218:
	st.w	[a15],d15
.L40:

; BSW\src\BSW\Gen\Rba_FeeFs1\src\rba_FeeFs1_Cbk.c	   591      }
; BSW\src\BSW\Gen\Rba_FeeFs1\src\rba_FeeFs1_Cbk.c	   592  #endif
; BSW\src\BSW\Gen\Rba_FeeFs1\src\rba_FeeFs1_Cbk.c	   593  
; BSW\src\BSW\Gen\Rba_FeeFs1\src\rba_FeeFs1_Cbk.c	   594      /* Switch state machine of the function Fee_LLCompBlkInFlash */
; BSW\src\BSW\Gen\Rba_FeeFs1\src\rba_FeeFs1_Cbk.c	   595      if (Fee_RdWrOrder_st.Fee_LLCompBlk == FEE_LL_CMP_WAIT_HEADER_E)
	lea	a4,[a5]76
	ld.w	d15,[a4]
.L219:
	jne	d15,#2,.L41
.L220:

; BSW\src\BSW\Gen\Rba_FeeFs1\src\rba_FeeFs1_Cbk.c	   596      {
; BSW\src\BSW\Gen\Rba_FeeFs1\src\rba_FeeFs1_Cbk.c	   597          /* Fls_Compare was finished without success */
; BSW\src\BSW\Gen\Rba_FeeFs1\src\rba_FeeFs1_Cbk.c	   598          Fee_GlobInfoWrBlock_st.CompareResult_u8 = 1;
	movh.a	a15,#@his(Fee_GlobInfoWrBlock_st)
	lea	a15,[a15]@los(Fee_GlobInfoWrBlock_st)
.L221:
	mov	d15,#1
.L222:
	st.b	[a15]6,d15
.L223:

; BSW\src\BSW\Gen\Rba_FeeFs1\src\rba_FeeFs1_Cbk.c	   599  
; BSW\src\BSW\Gen\Rba_FeeFs1\src\rba_FeeFs1_Cbk.c	   600          /* Error behaviour is done after checking the compare result */
; BSW\src\BSW\Gen\Rba_FeeFs1\src\rba_FeeFs1_Cbk.c	   601          Fee_RdWrOrder_st.Fee_LLCompBlk = FEE_LL_CMP_CHECK_OVERLAP_E;
	mov	d15,#3
.L224:
	st.w	[a4],d15
.L41:

; BSW\src\BSW\Gen\Rba_FeeFs1\src\rba_FeeFs1_Cbk.c	   602      }
; BSW\src\BSW\Gen\Rba_FeeFs1\src\rba_FeeFs1_Cbk.c	   603  
; BSW\src\BSW\Gen\Rba_FeeFs1\src\rba_FeeFs1_Cbk.c	   604      /* Switch state machine of the function Fee_LLCompBlkInFlash */
; BSW\src\BSW\Gen\Rba_FeeFs1\src\rba_FeeFs1_Cbk.c	   605      if (Fee_RdWrOrder_st.Fee_LLCompBlk == FEE_LL_CMP_WAIT_DATA_SEC_A_E)
	ld.w	d15,[a4]
.L225:
	jne	d15,#5,.L42
.L226:

; BSW\src\BSW\Gen\Rba_FeeFs1\src\rba_FeeFs1_Cbk.c	   606      {
; BSW\src\BSW\Gen\Rba_FeeFs1\src\rba_FeeFs1_Cbk.c	   607          /* Fls_Compare was finished without success */
; BSW\src\BSW\Gen\Rba_FeeFs1\src\rba_FeeFs1_Cbk.c	   608          Fee_GlobInfoWrBlock_st.CompareResult_u8 = 1;
	movh.a	a15,#@his(Fee_GlobInfoWrBlock_st)
	lea	a15,[a15]@los(Fee_GlobInfoWrBlock_st)
.L227:
	mov	d15,#1
.L228:
	st.b	[a15]6,d15
.L229:

; BSW\src\BSW\Gen\Rba_FeeFs1\src\rba_FeeFs1_Cbk.c	   609  
; BSW\src\BSW\Gen\Rba_FeeFs1\src\rba_FeeFs1_Cbk.c	   610          /* Error behaviour is done after checking the compare result */
; BSW\src\BSW\Gen\Rba_FeeFs1\src\rba_FeeFs1_Cbk.c	   611          Fee_RdWrOrder_st.Fee_LLCompBlk = FEE_LL_CMP_FINISHED_E;
	mov	d15,#6
.L230:
	st.w	[a4],d15
.L42:

; BSW\src\BSW\Gen\Rba_FeeFs1\src\rba_FeeFs1_Cbk.c	   612      }
; BSW\src\BSW\Gen\Rba_FeeFs1\src\rba_FeeFs1_Cbk.c	   613  
; BSW\src\BSW\Gen\Rba_FeeFs1\src\rba_FeeFs1_Cbk.c	   614      /* Switch state machine of the function Fee_LLCalcBlkCrcInFlash */
; BSW\src\BSW\Gen\Rba_FeeFs1\src\rba_FeeFs1_Cbk.c	   615      if(Fee_RdWrOrder_st.Fee_LLCalcCrcBlk_en == FEE_LL_CRC_RD_PAGE_WAIT_E)
	lea	a15,[a5]84
	ld.w	d15,[a15]
.L231:
	jne	d15,#7,.L43
.L232:

; BSW\src\BSW\Gen\Rba_FeeFs1\src\rba_FeeFs1_Cbk.c	   616      {
; BSW\src\BSW\Gen\Rba_FeeFs1\src\rba_FeeFs1_Cbk.c	   617          /* Fls_Read was finished without success */
; BSW\src\BSW\Gen\Rba_FeeFs1\src\rba_FeeFs1_Cbk.c	   618          Fee_RdWrOrder_st.Fee_LLCalcCrcBlk_en = FEE_LL_CRC_RD_ERROR_E;
	mov	d15,#8
.L233:
	st.w	[a15],d15
.L43:

; BSW\src\BSW\Gen\Rba_FeeFs1\src\rba_FeeFs1_Cbk.c	   619      }
; BSW\src\BSW\Gen\Rba_FeeFs1\src\rba_FeeFs1_Cbk.c	   620  
; BSW\src\BSW\Gen\Rba_FeeFs1\src\rba_FeeFs1_Cbk.c	   621      #if(FEE_ROB_FEATURE_ACTIVE != FALSE)
; BSW\src\BSW\Gen\Rba_FeeFs1\src\rba_FeeFs1_Cbk.c	   622      /* Switch state machine of the function Fee_LLCalcBlkCrcInFlash */
; BSW\src\BSW\Gen\Rba_FeeFs1\src\rba_FeeFs1_Cbk.c	   623      if(Fee_RdWrOrder_st.Fee_LLCalcCrcBlk_en == FEE_LL_CRC_RD_ROB_PAGE_WAIT_E)
	ld.w	d15,[a15]
.L234:
	jne	d15,#6,.L44
.L235:

; BSW\src\BSW\Gen\Rba_FeeFs1\src\rba_FeeFs1_Cbk.c	   624      {
; BSW\src\BSW\Gen\Rba_FeeFs1\src\rba_FeeFs1_Cbk.c	   625          /* Fls_Read was finished without success */
; BSW\src\BSW\Gen\Rba_FeeFs1\src\rba_FeeFs1_Cbk.c	   626          Fee_RdWrOrder_st.Fee_LLCalcCrcBlk_en = FEE_LL_CRC_RD_ERROR_E;
	mov	d15,#8
.L236:
	st.w	[a15],d15
.L44:

; BSW\src\BSW\Gen\Rba_FeeFs1\src\rba_FeeFs1_Cbk.c	   627      }
; BSW\src\BSW\Gen\Rba_FeeFs1\src\rba_FeeFs1_Cbk.c	   628      #endif
; BSW\src\BSW\Gen\Rba_FeeFs1\src\rba_FeeFs1_Cbk.c	   629  
; BSW\src\BSW\Gen\Rba_FeeFs1\src\rba_FeeFs1_Cbk.c	   630      /* Switch state machine of function the Fee_LLEraseSector */
; BSW\src\BSW\Gen\Rba_FeeFs1\src\rba_FeeFs1_Cbk.c	   631      if (Fee_LLEraseOrder_st.EraseState_en == FEE_ERASESEC_DO_E)
	movh.a	a15,#@his(Fee_LLEraseOrder_st)
	lea	a15,[a15]@los(Fee_LLEraseOrder_st)
.L237:
	ld.w	d15,[a15]
.L238:
	jne	d15,#3,.L45
.L239:

; BSW\src\BSW\Gen\Rba_FeeFs1\src\rba_FeeFs1_Cbk.c	   632      {
; BSW\src\BSW\Gen\Rba_FeeFs1\src\rba_FeeFs1_Cbk.c	   633          /* In case of suspend it might be necessary to switch a read or write
; BSW\src\BSW\Gen\Rba_FeeFs1\src\rba_FeeFs1_Cbk.c	   634           * state machine instead of switching the erase state machine */
; BSW\src\BSW\Gen\Rba_FeeFs1\src\rba_FeeFs1_Cbk.c	   635  
; BSW\src\BSW\Gen\Rba_FeeFs1\src\rba_FeeFs1_Cbk.c	   636          /* Hint: an erase during a write or reorg is not regarded because
; BSW\src\BSW\Gen\Rba_FeeFs1\src\rba_FeeFs1_Cbk.c	   637           *       this case is not common at all. It will be changed by
; BSW\src\BSW\Gen\Rba_FeeFs1\src\rba_FeeFs1_Cbk.c	   638           *       moving the internal erase sequences to the very
; BSW\src\BSW\Gen\Rba_FeeFs1\src\rba_FeeFs1_Cbk.c	   639           *       upper level (main function). */
; BSW\src\BSW\Gen\Rba_FeeFs1\src\rba_FeeFs1_Cbk.c	   640          #if (FEE_RB_ACT_ERASE_SUSPENSION != FALSE)
; BSW\src\BSW\Gen\Rba_FeeFs1\src\rba_FeeFs1_Cbk.c	   641          if(Fee_Prv_stSuspendActiv_b == FALSE)
; BSW\src\BSW\Gen\Rba_FeeFs1\src\rba_FeeFs1_Cbk.c	   642          #endif
; BSW\src\BSW\Gen\Rba_FeeFs1\src\rba_FeeFs1_Cbk.c	   643          {
; BSW\src\BSW\Gen\Rba_FeeFs1\src\rba_FeeFs1_Cbk.c	   644              /* Fls_Erase was finished without success */
; BSW\src\BSW\Gen\Rba_FeeFs1\src\rba_FeeFs1_Cbk.c	   645              Fee_LLEraseOrder_st.EraseState_en = FEE_ERASESEC_ERROR_E;
	mov	d15,#5
.L240:
	st.w	[a15],d15
.L45:

; BSW\src\BSW\Gen\Rba_FeeFs1\src\rba_FeeFs1_Cbk.c	   646          }
; BSW\src\BSW\Gen\Rba_FeeFs1\src\rba_FeeFs1_Cbk.c	   647      }
; BSW\src\BSW\Gen\Rba_FeeFs1\src\rba_FeeFs1_Cbk.c	   648  
; BSW\src\BSW\Gen\Rba_FeeFs1\src\rba_FeeFs1_Cbk.c	   649      /* Switch state machine of the function Fee_LLCopyData2Buffer */
; BSW\src\BSW\Gen\Rba_FeeFs1\src\rba_FeeFs1_Cbk.c	   650      if(Fee_RdWrOrder_st.Fee_LLCopyBlk_en == FEE_LL_CPY_BLOCK_WAIT_E)
	lea	a15,[a5]80
	ld.w	d15,[a15]
.L241:
	jne	d15,#2,.L46
.L242:

; BSW\src\BSW\Gen\Rba_FeeFs1\src\rba_FeeFs1_Cbk.c	   651      {
; BSW\src\BSW\Gen\Rba_FeeFs1\src\rba_FeeFs1_Cbk.c	   652          /* Fls_Read was finished without success */
; BSW\src\BSW\Gen\Rba_FeeFs1\src\rba_FeeFs1_Cbk.c	   653          Fee_RdWrOrder_st.Fee_LLCopyBlk_en = FEE_LL_CPY_BLOCK_ERROR_E;
	mov	d15,#3
.L243:
	st.w	[a15],d15
.L46:

; BSW\src\BSW\Gen\Rba_FeeFs1\src\rba_FeeFs1_Cbk.c	   654      }
; BSW\src\BSW\Gen\Rba_FeeFs1\src\rba_FeeFs1_Cbk.c	   655  
; BSW\src\BSW\Gen\Rba_FeeFs1\src\rba_FeeFs1_Cbk.c	   656      /* Switch state machine of the function Fee_LLCpyBlkFromFls2Fls */
; BSW\src\BSW\Gen\Rba_FeeFs1\src\rba_FeeFs1_Cbk.c	   657      if(Fee_RdWrOrder_st.Fee_LLCpyBlkFls2Fls_en == FEE_LL_CPY_FLS2FLS_WAIT_READ_E)
	lea	a15,[a5]48
	ld.w	d15,[a15]
.L244:
	jne	d15,#2,.L47
.L245:

; BSW\src\BSW\Gen\Rba_FeeFs1\src\rba_FeeFs1_Cbk.c	   658      {
; BSW\src\BSW\Gen\Rba_FeeFs1\src\rba_FeeFs1_Cbk.c	   659          /* Fls_Read was finished without success */
; BSW\src\BSW\Gen\Rba_FeeFs1\src\rba_FeeFs1_Cbk.c	   660          Fee_RdWrOrder_st.Fee_LLCpyBlkFls2Fls_en = FEE_LL_CPY_FLS2FLS_READ_ERROR_E;
	mov	d15,#3
.L246:
	st.w	[a15],d15
.L47:

; BSW\src\BSW\Gen\Rba_FeeFs1\src\rba_FeeFs1_Cbk.c	   661      }
; BSW\src\BSW\Gen\Rba_FeeFs1\src\rba_FeeFs1_Cbk.c	   662  
; BSW\src\BSW\Gen\Rba_FeeFs1\src\rba_FeeFs1_Cbk.c	   663  
; BSW\src\BSW\Gen\Rba_FeeFs1\src\rba_FeeFs1_Cbk.c	   664      /* Switch state machine of the function Fee_LLCpyBlkFromFls2Fls */
; BSW\src\BSW\Gen\Rba_FeeFs1\src\rba_FeeFs1_Cbk.c	   665  #if (FEE_PAGES_USED_BY_BLK_HEADER == 2u)    /* Robust block programming states (Hdpg1 -> Data -> Hdpg2 write) */
; BSW\src\BSW\Gen\Rba_FeeFs1\src\rba_FeeFs1_Cbk.c	   666      if(Fee_RdWrOrder_st.Fee_LLCpyBlkFls2Fls_en == FEE_LL_CPY_FLS2FLS_WAIT_HDRPG1_WRITE_E)
	ld.w	d15,[a15]
.L247:
	jne	d15,#5,.L48
.L248:

; BSW\src\BSW\Gen\Rba_FeeFs1\src\rba_FeeFs1_Cbk.c	   667      {
; BSW\src\BSW\Gen\Rba_FeeFs1\src\rba_FeeFs1_Cbk.c	   668          /* Fls_Write was finished without success */
; BSW\src\BSW\Gen\Rba_FeeFs1\src\rba_FeeFs1_Cbk.c	   669          Fee_RdWrOrder_st.Fee_LLCpyBlkFls2Fls_en = FEE_LL_CPY_FLS2FLS_HDRPG1_WRITE_ERROR_E;
	mov	d15,#6
.L249:
	st.w	[a15],d15
.L48:

; BSW\src\BSW\Gen\Rba_FeeFs1\src\rba_FeeFs1_Cbk.c	   670      }
; BSW\src\BSW\Gen\Rba_FeeFs1\src\rba_FeeFs1_Cbk.c	   671  #endif
; BSW\src\BSW\Gen\Rba_FeeFs1\src\rba_FeeFs1_Cbk.c	   672  
; BSW\src\BSW\Gen\Rba_FeeFs1\src\rba_FeeFs1_Cbk.c	   673  
; BSW\src\BSW\Gen\Rba_FeeFs1\src\rba_FeeFs1_Cbk.c	   674      /* Switch state machine of the function Fee_LLCpyBlkFromFls2Fls */
; BSW\src\BSW\Gen\Rba_FeeFs1\src\rba_FeeFs1_Cbk.c	   675      if(Fee_RdWrOrder_st.Fee_LLCpyBlkFls2Fls_en == FEE_LL_CPY_FLS2FLS_WAIT_WRITE_E)
	ld.w	d0,[a15]
.L250:
	mov	d15,#11
.L251:
	jne	d15,d0,.L49
.L252:

; BSW\src\BSW\Gen\Rba_FeeFs1\src\rba_FeeFs1_Cbk.c	   676      {
; BSW\src\BSW\Gen\Rba_FeeFs1\src\rba_FeeFs1_Cbk.c	   677          /* Fls_Write was finished without success */
; BSW\src\BSW\Gen\Rba_FeeFs1\src\rba_FeeFs1_Cbk.c	   678          Fee_RdWrOrder_st.Fee_LLCpyBlkFls2Fls_en = FEE_LL_CPY_FLS2FLS_WRITE_ERROR_E;
	mov	d15,#12
.L253:
	st.w	[a15],d15
.L49:

; BSW\src\BSW\Gen\Rba_FeeFs1\src\rba_FeeFs1_Cbk.c	   679      }
; BSW\src\BSW\Gen\Rba_FeeFs1\src\rba_FeeFs1_Cbk.c	   680  
; BSW\src\BSW\Gen\Rba_FeeFs1\src\rba_FeeFs1_Cbk.c	   681  #if (FEE_PAGES_USED_BY_BLK_HEADER == 2u)    /* Robust block programming states (Hdpg1 -> Data -> Hdpg2 write) */
; BSW\src\BSW\Gen\Rba_FeeFs1\src\rba_FeeFs1_Cbk.c	   682      /* Switch state machine of the function Fee_LLCpyBlkFromFls2Fls */
; BSW\src\BSW\Gen\Rba_FeeFs1\src\rba_FeeFs1_Cbk.c	   683      if(Fee_RdWrOrder_st.Fee_LLCpyBlkFls2Fls_en == FEE_LL_CPY_FLS2FLS_WAIT_HDRPG2_WRITE_E)
	ld.w	d0,[a15]
.L254:
	mov	d15,#17
.L255:
	jne	d15,d0,.L50
.L256:

; BSW\src\BSW\Gen\Rba_FeeFs1\src\rba_FeeFs1_Cbk.c	   684      {
; BSW\src\BSW\Gen\Rba_FeeFs1\src\rba_FeeFs1_Cbk.c	   685          /* Fls_Write was finished without success */
; BSW\src\BSW\Gen\Rba_FeeFs1\src\rba_FeeFs1_Cbk.c	   686          Fee_RdWrOrder_st.Fee_LLCpyBlkFls2Fls_en = FEE_LL_CPY_FLS2FLS_HDRPG2_WRITE_ERROR_E;
	mov	d15,#18
.L257:
	st.w	[a15],d15
.L50:

; BSW\src\BSW\Gen\Rba_FeeFs1\src\rba_FeeFs1_Cbk.c	   687      }
; BSW\src\BSW\Gen\Rba_FeeFs1\src\rba_FeeFs1_Cbk.c	   688  
; BSW\src\BSW\Gen\Rba_FeeFs1\src\rba_FeeFs1_Cbk.c	   689      /* Switch state machine of the function Fee_LLCpyBlkFromFls2Fls */
; BSW\src\BSW\Gen\Rba_FeeFs1\src\rba_FeeFs1_Cbk.c	   690      if(Fee_RdWrOrder_st.Fee_LLCpyBlkFls2Fls_en == FEE_LL_CPY_FLS2FLS_WAIT_HDRPG1_VERIFY_E)
	ld.w	d0,[a15]
.L258:
	mov	d15,#8
.L259:
	jne	d15,d0,.L51
.L260:

; BSW\src\BSW\Gen\Rba_FeeFs1\src\rba_FeeFs1_Cbk.c	   691      {
; BSW\src\BSW\Gen\Rba_FeeFs1\src\rba_FeeFs1_Cbk.c	   692          /* Fls_Compare was finished without success */
; BSW\src\BSW\Gen\Rba_FeeFs1\src\rba_FeeFs1_Cbk.c	   693          /* Set error case */
; BSW\src\BSW\Gen\Rba_FeeFs1\src\rba_FeeFs1_Cbk.c	   694          Fee_RdWrOrder_st.Fee_LLCpyBlkFls2Fls_en = FEE_LL_CPY_FLS2FLS_HDRPG1_VERIFY_ERROR_E;
	mov	d15,#9
.L261:
	st.w	[a15],d15
.L51:

; BSW\src\BSW\Gen\Rba_FeeFs1\src\rba_FeeFs1_Cbk.c	   695      }
; BSW\src\BSW\Gen\Rba_FeeFs1\src\rba_FeeFs1_Cbk.c	   696  #endif
; BSW\src\BSW\Gen\Rba_FeeFs1\src\rba_FeeFs1_Cbk.c	   697  
; BSW\src\BSW\Gen\Rba_FeeFs1\src\rba_FeeFs1_Cbk.c	   698      /* Switch state machine of the function Fee_LLCpyBlkFromFls2Fls */
; BSW\src\BSW\Gen\Rba_FeeFs1\src\rba_FeeFs1_Cbk.c	   699      if(Fee_RdWrOrder_st.Fee_LLCpyBlkFls2Fls_en == FEE_LL_CPY_FLS2FLS_WAIT_VERIFY_E)
	ld.w	d0,[a15]
.L262:
	mov	d15,#14
.L263:
	jne	d15,d0,.L52
.L264:

; BSW\src\BSW\Gen\Rba_FeeFs1\src\rba_FeeFs1_Cbk.c	   700      {
; BSW\src\BSW\Gen\Rba_FeeFs1\src\rba_FeeFs1_Cbk.c	   701          /* Fls_Compare was finished without success */
; BSW\src\BSW\Gen\Rba_FeeFs1\src\rba_FeeFs1_Cbk.c	   702          /* Set error case */
; BSW\src\BSW\Gen\Rba_FeeFs1\src\rba_FeeFs1_Cbk.c	   703          Fee_RdWrOrder_st.Fee_LLCpyBlkFls2Fls_en = FEE_LL_CPY_FLS2FLS_VERIFY_ERROR_E;
	mov	d15,#15
.L265:
	st.w	[a15],d15
.L52:

; BSW\src\BSW\Gen\Rba_FeeFs1\src\rba_FeeFs1_Cbk.c	   704      }
; BSW\src\BSW\Gen\Rba_FeeFs1\src\rba_FeeFs1_Cbk.c	   705  
; BSW\src\BSW\Gen\Rba_FeeFs1\src\rba_FeeFs1_Cbk.c	   706  #if (FEE_PAGES_USED_BY_BLK_HEADER == 2u)    /* Robust block programming states (Hdpg1 -> Data -> Hdpg2 write) */
; BSW\src\BSW\Gen\Rba_FeeFs1\src\rba_FeeFs1_Cbk.c	   707      /* Switch state machine of the function Fee_LLCpyBlkFromFls2Fls */
; BSW\src\BSW\Gen\Rba_FeeFs1\src\rba_FeeFs1_Cbk.c	   708      if(Fee_RdWrOrder_st.Fee_LLCpyBlkFls2Fls_en == FEE_LL_CPY_FLS2FLS_WAIT_HDRPG2_VERIFY_E)
	ld.w	d0,[a15]
.L266:
	mov	d15,#20
.L267:
	jne	d15,d0,.L53
.L268:

; BSW\src\BSW\Gen\Rba_FeeFs1\src\rba_FeeFs1_Cbk.c	   709      {
; BSW\src\BSW\Gen\Rba_FeeFs1\src\rba_FeeFs1_Cbk.c	   710          /* Fls_Compare was finished without success */
; BSW\src\BSW\Gen\Rba_FeeFs1\src\rba_FeeFs1_Cbk.c	   711          /* Set error case */
; BSW\src\BSW\Gen\Rba_FeeFs1\src\rba_FeeFs1_Cbk.c	   712          Fee_RdWrOrder_st.Fee_LLCpyBlkFls2Fls_en = FEE_LL_CPY_FLS2FLS_HDRPG2_VERIFY_ERROR_E;
	mov	d15,#21
.L269:
	st.w	[a15],d15
.L53:

; BSW\src\BSW\Gen\Rba_FeeFs1\src\rba_FeeFs1_Cbk.c	   713      }
; BSW\src\BSW\Gen\Rba_FeeFs1\src\rba_FeeFs1_Cbk.c	   714  #endif
; BSW\src\BSW\Gen\Rba_FeeFs1\src\rba_FeeFs1_Cbk.c	   715  
; BSW\src\BSW\Gen\Rba_FeeFs1\src\rba_FeeFs1_Cbk.c	   716  #if defined (FEE_PRV_ROBUST_SECT_OVERFLOW)
; BSW\src\BSW\Gen\Rba_FeeFs1\src\rba_FeeFs1_Cbk.c	   717  #if ( defined(RBA_FLSRH850P1xC_FLASH) || defined(RBA_FLSV850R1x_FLASH) || defined(RBA_FLSRH850xx_FLASH) ) /* For Renesas controllers */
; BSW\src\BSW\Gen\Rba_FeeFs1\src\rba_FeeFs1_Cbk.c	   718      /* Switch state machine of the function Fee_LlRobustSectorOverflow */
; BSW\src\BSW\Gen\Rba_FeeFs1\src\rba_FeeFs1_Cbk.c	   719      if(Fee_RdWrOrder_st.Fee_LLRobustSectOverflow_en == FEE_LL_ROBUST_SECTOR_OVERFLOW_BLANK_CHK_WAIT_E)
; BSW\src\BSW\Gen\Rba_FeeFs1\src\rba_FeeFs1_Cbk.c	   720      {
; BSW\src\BSW\Gen\Rba_FeeFs1\src\rba_FeeFs1_Cbk.c	   721          /* Page is not blank, the page must be transfered to new sector, first read the page into internal buffer.  */
; BSW\src\BSW\Gen\Rba_FeeFs1\src\rba_FeeFs1_Cbk.c	   722          Fee_RdWrOrder_st.Fee_LLRobustSectOverflow_en = FEE_LL_ROBUST_SECTOR_OVERFLOW_READ_PAGE_E;
; BSW\src\BSW\Gen\Rba_FeeFs1\src\rba_FeeFs1_Cbk.c	   723      }
; BSW\src\BSW\Gen\Rba_FeeFs1\src\rba_FeeFs1_Cbk.c	   724  #endif
; BSW\src\BSW\Gen\Rba_FeeFs1\src\rba_FeeFs1_Cbk.c	   725  
; BSW\src\BSW\Gen\Rba_FeeFs1\src\rba_FeeFs1_Cbk.c	   726      /* Switch state machine of the function Fee_LlRobustSectorOverflow */
; BSW\src\BSW\Gen\Rba_FeeFs1\src\rba_FeeFs1_Cbk.c	   727      if(Fee_RdWrOrder_st.Fee_LLRobustSectOverflow_en == FEE_LL_ROBUST_SECTOR_OVERFLOW_READ_PAGE_WAIT_E)
; BSW\src\BSW\Gen\Rba_FeeFs1\src\rba_FeeFs1_Cbk.c	   728      {
; BSW\src\BSW\Gen\Rba_FeeFs1\src\rba_FeeFs1_Cbk.c	   729          /* Page was read failed, retry with erase.  */
; BSW\src\BSW\Gen\Rba_FeeFs1\src\rba_FeeFs1_Cbk.c	   730          Fee_RdWrOrder_st.Fee_LLRobustSectOverflow_en = FEE_LL_ROBUST_SECTOR_OVERFLOW_ERROR_E;
; BSW\src\BSW\Gen\Rba_FeeFs1\src\rba_FeeFs1_Cbk.c	   731      }
; BSW\src\BSW\Gen\Rba_FeeFs1\src\rba_FeeFs1_Cbk.c	   732  
; BSW\src\BSW\Gen\Rba_FeeFs1\src\rba_FeeFs1_Cbk.c	   733      /* Switch state machine of the function Fee_LlRobustSectorOverflow */
; BSW\src\BSW\Gen\Rba_FeeFs1\src\rba_FeeFs1_Cbk.c	   734      if(Fee_RdWrOrder_st.Fee_LLRobustSectOverflow_en == FEE_LL_ROBUST_SECTOR_OVERFLOW_COPY_DATA_WAIT_E)
; BSW\src\BSW\Gen\Rba_FeeFs1\src\rba_FeeFs1_Cbk.c	   735      {
; BSW\src\BSW\Gen\Rba_FeeFs1\src\rba_FeeFs1_Cbk.c	   736          /* Page programming failed, retry starting with erase.  */
; BSW\src\BSW\Gen\Rba_FeeFs1\src\rba_FeeFs1_Cbk.c	   737          Fee_RdWrOrder_st.Fee_LLRobustSectOverflow_en = FEE_LL_ROBUST_SECTOR_OVERFLOW_ERROR_E;
; BSW\src\BSW\Gen\Rba_FeeFs1\src\rba_FeeFs1_Cbk.c	   738      }
; BSW\src\BSW\Gen\Rba_FeeFs1\src\rba_FeeFs1_Cbk.c	   739  
; BSW\src\BSW\Gen\Rba_FeeFs1\src\rba_FeeFs1_Cbk.c	   740      /* Switch state machine of the function Fee_LlRobustSectorOverflow */
; BSW\src\BSW\Gen\Rba_FeeFs1\src\rba_FeeFs1_Cbk.c	   741      if(Fee_RdWrOrder_st.Fee_LLRobustSectOverflow_en == FEE_LL_ROBUST_SECTOR_OVERFLOW_VERIFY_DATA_WAIT_E)
; BSW\src\BSW\Gen\Rba_FeeFs1\src\rba_FeeFs1_Cbk.c	   742      {
; BSW\src\BSW\Gen\Rba_FeeFs1\src\rba_FeeFs1_Cbk.c	   743          /* Verification failed, retry starting with erase. */
; BSW\src\BSW\Gen\Rba_FeeFs1\src\rba_FeeFs1_Cbk.c	   744          Fee_RdWrOrder_st.Fee_LLRobustSectOverflow_en = FEE_LL_ROBUST_SECTOR_OVERFLOW_ERROR_E;
; BSW\src\BSW\Gen\Rba_FeeFs1\src\rba_FeeFs1_Cbk.c	   745      }
; BSW\src\BSW\Gen\Rba_FeeFs1\src\rba_FeeFs1_Cbk.c	   746  #endif   /*#if defined (FEE_PRV_ROBUST_SECT_OVERFLOW)*/
; BSW\src\BSW\Gen\Rba_FeeFs1\src\rba_FeeFs1_Cbk.c	   747  
; BSW\src\BSW\Gen\Rba_FeeFs1\src\rba_FeeFs1_Cbk.c	   748  #if (FEE_NO_FALLBACK_ACTIVE != FALSE)
; BSW\src\BSW\Gen\Rba_FeeFs1\src\rba_FeeFs1_Cbk.c	   749      if (Fee_RdWrOrder_st.Fee_LLWrBlock_en == FEE_LL_WR_BLANKCHECK_NOFB_WR_WAIT_E)
; BSW\src\BSW\Gen\Rba_FeeFs1\src\rba_FeeFs1_Cbk.c	   750      {
; BSW\src\BSW\Gen\Rba_FeeFs1\src\rba_FeeFs1_Cbk.c	   751          // If NoFB Address is not blank, overstep the writing of the marker
; BSW\src\BSW\Gen\Rba_FeeFs1\src\rba_FeeFs1_Cbk.c	   752          Fee_RdWrOrder_st.Fee_LLWrBlock_en = FEE_LL_WR_FILL_SECTOR_END_E;
; BSW\src\BSW\Gen\Rba_FeeFs1\src\rba_FeeFs1_Cbk.c	   753      }
; BSW\src\BSW\Gen\Rba_FeeFs1\src\rba_FeeFs1_Cbk.c	   754  #endif //(FEE_NO_FALLBACK_ACTIVE != FALSE)
; BSW\src\BSW\Gen\Rba_FeeFs1\src\rba_FeeFs1_Cbk.c	   755  
; BSW\src\BSW\Gen\Rba_FeeFs1\src\rba_FeeFs1_Cbk.c	   756      /* Switch state machine of the function Fee_LLWriteBlock */
; BSW\src\BSW\Gen\Rba_FeeFs1\src\rba_FeeFs1_Cbk.c	   757  
; BSW\src\BSW\Gen\Rba_FeeFs1\src\rba_FeeFs1_Cbk.c	   758      if((Fee_RdWrOrder_st.Fee_LLWrBlock_en == FEE_LL_WR_WRITEHEADER_WAIT_E) || (Fee_RdWrOrder_st.Fee_LLWrBlock_en == FEE_LL_WR_WAIT_WRITEDATA_SEC_A_E))
	ld.w	d15,[a2]
.L270:
	jeq	d15,#3,.L54
.L271:
	mov	d0,#8
.L272:
	jne	d15,d0,.L55
.L54:

; BSW\src\BSW\Gen\Rba_FeeFs1\src\rba_FeeFs1_Cbk.c	   759      {
; BSW\src\BSW\Gen\Rba_FeeFs1\src\rba_FeeFs1_Cbk.c	   760          /* Fls_Write failed, return error */
; BSW\src\BSW\Gen\Rba_FeeFs1\src\rba_FeeFs1_Cbk.c	   761          Fee_RdWrOrder_st.Fee_LLWrBlock_en = FEE_LL_WR_WRITE_ERROR_E;
	mov	d15,#9
.L273:
	st.w	[a2],d15
.L55:

; BSW\src\BSW\Gen\Rba_FeeFs1\src\rba_FeeFs1_Cbk.c	   762      }
; BSW\src\BSW\Gen\Rba_FeeFs1\src\rba_FeeFs1_Cbk.c	   763  
; BSW\src\BSW\Gen\Rba_FeeFs1\src\rba_FeeFs1_Cbk.c	   764  #if (FEE_PAGES_USED_BY_BLK_HEADER == 2u)   /* Robust block programming states (Hdpg1 -> Data -> Hdpg2 write) */
; BSW\src\BSW\Gen\Rba_FeeFs1\src\rba_FeeFs1_Cbk.c	   765      if(Fee_RdWrOrder_st.Fee_LLWrBlock_en == FEE_LL_WR_WAIT_WRITEHDRPG2_E)
	ld.w	d0,[a2]
.L274:
	mov	d15,#16
.L275:
	jne	d15,d0,.L56
.L276:

; BSW\src\BSW\Gen\Rba_FeeFs1\src\rba_FeeFs1_Cbk.c	   766      {
; BSW\src\BSW\Gen\Rba_FeeFs1\src\rba_FeeFs1_Cbk.c	   767          /* Fls_Write failed, return error */
; BSW\src\BSW\Gen\Rba_FeeFs1\src\rba_FeeFs1_Cbk.c	   768          Fee_RdWrOrder_st.Fee_LLWrBlock_en = FEE_LL_WR_WRITE_ERROR_E;
	mov	d15,#9
.L277:
	st.w	[a2],d15
.L56:

; BSW\src\BSW\Gen\Rba_FeeFs1\src\rba_FeeFs1_Cbk.c	   769      }
; BSW\src\BSW\Gen\Rba_FeeFs1\src\rba_FeeFs1_Cbk.c	   770  #endif
; BSW\src\BSW\Gen\Rba_FeeFs1\src\rba_FeeFs1_Cbk.c	   771  
; BSW\src\BSW\Gen\Rba_FeeFs1\src\rba_FeeFs1_Cbk.c	   772      #if(FEE_ROBUST_PROG_ACTIVE != FALSE)
; BSW\src\BSW\Gen\Rba_FeeFs1\src\rba_FeeFs1_Cbk.c	   773      if (Fee_RobIfxHdl == FEE_ROB_IFX_STORE_BUFFER_WAIT)
; BSW\src\BSW\Gen\Rba_FeeFs1\src\rba_FeeFs1_Cbk.c	   774      {
; BSW\src\BSW\Gen\Rba_FeeFs1\src\rba_FeeFs1_Cbk.c	   775          Fee_RobIfxHdl = FEE_ROB_IFX_COPY_DATA;
; BSW\src\BSW\Gen\Rba_FeeFs1\src\rba_FeeFs1_Cbk.c	   776      }
; BSW\src\BSW\Gen\Rba_FeeFs1\src\rba_FeeFs1_Cbk.c	   777  
; BSW\src\BSW\Gen\Rba_FeeFs1\src\rba_FeeFs1_Cbk.c	   778      if (Fee_RobIfxHdl == FEE_ROB_IFX_STORE_COPY_WAIT)
; BSW\src\BSW\Gen\Rba_FeeFs1\src\rba_FeeFs1_Cbk.c	   779      {
; BSW\src\BSW\Gen\Rba_FeeFs1\src\rba_FeeFs1_Cbk.c	   780          Fee_RobIfxHdl = FEE_ROB_IFX_WRITE_USED_MARK_SECTOR;
; BSW\src\BSW\Gen\Rba_FeeFs1\src\rba_FeeFs1_Cbk.c	   781      }
; BSW\src\BSW\Gen\Rba_FeeFs1\src\rba_FeeFs1_Cbk.c	   782      #endif
; BSW\src\BSW\Gen\Rba_FeeFs1\src\rba_FeeFs1_Cbk.c	   783  
; BSW\src\BSW\Gen\Rba_FeeFs1\src\rba_FeeFs1_Cbk.c	   784      #if((FEE_RB_ACT_UNKNOWN_BLOCK_REORG != FALSE) && (FEE_RB_ACT_UNKNOWN_BLOCK_CACHE_SIZE != 0))
; BSW\src\BSW\Gen\Rba_FeeFs1\src\rba_FeeFs1_Cbk.c	   785      /* Unknown block sector reorganisation with cache:
; BSW\src\BSW\Gen\Rba_FeeFs1\src\rba_FeeFs1_Cbk.c	   786       * Reading of header page of unknown block during sector change to extract the lenght and status flag. */
; BSW\src\BSW\Gen\Rba_FeeFs1\src\rba_FeeFs1_Cbk.c	   787      if (Fee_RdWrOrder_st.Fee_LLSecReorg_en == FEE_LL_REORG_SEARCH_UNK_HDRBLK_WAIT_E)
; BSW\src\BSW\Gen\Rba_FeeFs1\src\rba_FeeFs1_Cbk.c	   788      {
; BSW\src\BSW\Gen\Rba_FeeFs1\src\rba_FeeFs1_Cbk.c	   789          Fee_RdWrOrder_st.Fee_LLSecReorg_en = FEE_LL_REORG_SEARCH_UNK_HDRBLK_READ_ERROR_E;
; BSW\src\BSW\Gen\Rba_FeeFs1\src\rba_FeeFs1_Cbk.c	   790      }
; BSW\src\BSW\Gen\Rba_FeeFs1\src\rba_FeeFs1_Cbk.c	   791      #endif
; BSW\src\BSW\Gen\Rba_FeeFs1\src\rba_FeeFs1_Cbk.c	   792  
; BSW\src\BSW\Gen\Rba_FeeFs1\src\rba_FeeFs1_Cbk.c	   793      #if (STD_OFF == FEE_POLLING_MODE)
; BSW\src\BSW\Gen\Rba_FeeFs1\src\rba_FeeFs1_Cbk.c	   794      /* Switch the read or write state machine (no special case within this function) */
; BSW\src\BSW\Gen\Rba_FeeFs1\src\rba_FeeFs1_Cbk.c	   795      Fee_JobEndNotification();
; BSW\src\BSW\Gen\Rba_FeeFs1\src\rba_FeeFs1_Cbk.c	   796      #else
; BSW\src\BSW\Gen\Rba_FeeFs1\src\rba_FeeFs1_Cbk.c	   797      /* Switch the read or write state machine (no special cases within this function) */
; BSW\src\BSW\Gen\Rba_FeeFs1\src\rba_FeeFs1_Cbk.c	   798      Fee_SwitchJobEndNotification();
	call	Fee_SwitchJobEndNotification
.L278:

; BSW\src\BSW\Gen\Rba_FeeFs1\src\rba_FeeFs1_Cbk.c	   799      #endif
; BSW\src\BSW\Gen\Rba_FeeFs1\src\rba_FeeFs1_Cbk.c	   800  }
	ret
.L76:
	
__Fee_SwitchJobErrorNotification_function_end:
	.size	Fee_SwitchJobErrorNotification,__Fee_SwitchJobErrorNotification_function_end-Fee_SwitchJobErrorNotification
.L74:
	; End of function
	
	.calls	'Fee_SwitchJobErrorNotification','Fee_SwitchJobEndNotification'
	.calls	'Fee_SwitchJobEndNotification','',0
	.extern	Fee_RdWrOrder_st
	.extern	Fee_LLEraseOrder_st
	.extern	Fee_GlobInfoWrBlock_st
	.extern	Fee_LLSecReorgStruct_st
	.calls	'Fee_SwitchJobErrorNotification','',0
	.sdecl	'.debug_info',debug
	.sect	'.debug_info'
.L62:
	.word	15591
	.half	3
	.word	.L63
	.byte	4
.L61:
	.byte	1
	.byte	'BSW\\src\\BSW\\Gen\\Rba_FeeFs1\\src\\rba_FeeFs1_Cbk.c',0
	.byte	'TASKING VX-toolset for TriCore: C compiler',0
	.byte	'C:\\Users\\HUR4HC\\Desktop\\Main_extract\\',0,12,1
	.word	.L64
	.byte	2
	.byte	'unsigned int',0,4,7,3
	.byte	'Fee_SrvRoundUp',0,3,1,140,11,21
	.word	147
	.byte	1,1,4
	.byte	'value_u32',0,1,140,11,43
	.word	147
	.byte	4
	.byte	'stepsize_u32',0,1,140,11,62
	.word	147
	.byte	5,0,6
	.word	163
	.byte	7
	.word	190
	.byte	7
	.word	209
	.byte	5,0,8,1,9
	.word	250
	.byte	10
	.byte	'__codeptr',0,2,1,1
	.word	252
	.byte	2
	.byte	'char',0,1,6,10
	.byte	'sint8',0,3,76,25
	.word	275
	.byte	2
	.byte	'unsigned char',0,1,8,10
	.byte	'uint8',0,3,81,25
	.word	297
	.byte	2
	.byte	'unsigned short int',0,2,7,10
	.byte	'uint16',0,3,91,25
	.word	328
	.byte	10
	.byte	'uint32',0,3,106,24
	.word	147
	.byte	2
	.byte	'unsigned long long int',0,8,7,10
	.byte	'uint64',0,3,111,30
	.word	380
	.byte	10
	.byte	'boolean',0,3,127,25
	.word	297
	.byte	10
	.byte	'StatusType',0,4,191,1,27
	.word	297
	.byte	10
	.byte	'Std_ReturnType',0,4,199,1,15
	.word	297
	.byte	11,4,206,1,9,8,12
	.byte	'vendorID',0
	.word	328
	.byte	2,2,35,0,12
	.byte	'moduleID',0
	.word	328
	.byte	2,2,35,2,12
	.byte	'sw_major_version',0
	.word	297
	.byte	1,2,35,4,12
	.byte	'sw_minor_version',0
	.word	297
	.byte	1,2,35,5,12
	.byte	'sw_patch_version',0
	.word	297
	.byte	1,2,35,6,0,10
	.byte	'Std_VersionInfoType',0,4,213,1,3
	.word	481
	.byte	11,5,93,9,8,12
	.byte	'Class',0
	.word	297
	.byte	1,2,35,0,12
	.byte	'TIN',0
	.word	297
	.byte	1,2,35,1,12
	.byte	'ReturnAddress',0
	.word	147
	.byte	4,2,35,4,0,10
	.byte	'OsTrapInfoType',0,5,97,3
	.word	631
	.byte	13,68
	.word	147
	.byte	14,16,0,11,5,154,1,9,68,12
	.byte	'store',0
	.word	711
	.byte	68,2,35,0,0,13,68
	.word	720
	.byte	14,0,0,10
	.byte	'Os_JumpBufType',0,5,156,1,3
	.word	742
	.byte	10
	.byte	'Os_StackTraceType',0,5,174,1,18
	.word	147
	.byte	11,5,175,1,9,8,12
	.byte	'sp',0
	.word	147
	.byte	4,2,35,0,12
	.byte	'ctx',0
	.word	147
	.byte	4,2,35,4,0,10
	.byte	'Os_StackValueType',0,5,175,1,63
	.word	802
	.byte	10
	.byte	'Os_StackSizeType',0,5,176,1,27
	.word	802
	.byte	15,1,1,9
	.word	887
	.byte	10
	.byte	'Os_VoidVoidFunctionType',0,5,179,1,16
	.word	890
	.byte	10
	.byte	'ApplicationType',0,5,193,1,23
	.word	297
	.byte	16
	.byte	'Os_ApplicationConfigurationType_s',0,5,198,1,16,2,12
	.byte	'app_id',0
	.word	297
	.byte	1,2,35,0,12
	.byte	'access',0
	.word	297
	.byte	1,2,35,1,0,10
	.byte	'Os_ApplicationConfigurationType',0,5,201,1,3
	.word	953
	.byte	10
	.byte	'Os_CoreStateType',0,5,203,1,16
	.word	147
	.byte	10
	.byte	'AreaIdType',0,5,204,1,16
	.word	328
	.byte	10
	.byte	'Os_PeripheralAddressType',0,5,212,1,22
	.word	147
	.byte	10
	.byte	'TickType',0,5,221,1,22
	.word	147
	.byte	10
	.byte	'Os_StopwatchTickType',0,5,225,1,22
	.word	147
	.byte	9
	.word	147
	.byte	10
	.byte	'Os_Lockable',0,5,234,1,18
	.word	1195
	.byte	10
	.byte	'CoreIdType',0,5,236,1,16
	.word	328
	.byte	10
	.byte	'SpinlockIdType',0,5,237,1,16
	.word	328
	.byte	17,5,239,1,9,4,18
	.byte	'TRYTOGETSPINLOCK_SUCCESS',0,0,18
	.byte	'TRYTOGETSPINLOCK_NOSUCCESS',0,1,0,10
	.byte	'TryToGetSpinlockType',0,5,239,1,74
	.word	1265
	.byte	17,5,174,2,9,4,18
	.byte	'APPLICATION_ACCESSIBLE',0,0,18
	.byte	'APPLICATION_RESTARTING',0,1,18
	.byte	'APPLICATION_TERMINATED',0,2,0,10
	.byte	'ApplicationStateType',0,5,174,2,92
	.word	1358
	.byte	19
	.byte	'void',0,9
	.word	1470
	.byte	20,1,1,21
	.word	297
	.byte	21
	.word	1476
	.byte	0,9
	.word	1481
	.byte	10
	.byte	'Os_FunctionEntryType',0,5,183,2,16
	.word	1495
	.byte	16
	.byte	'Os_MeterInfoType_s',0,5,193,2,16,48,12
	.byte	'elapsed',0
	.word	147
	.byte	4,2,35,0,12
	.byte	'previous',0
	.word	147
	.byte	4,2,35,4,12
	.byte	'max',0
	.word	147
	.byte	4,2,35,8,12
	.byte	'cumulative',0
	.word	147
	.byte	4,2,35,12,12
	.byte	'stackbase',0
	.word	802
	.byte	8,2,35,16,12
	.byte	'stackusage',0
	.word	802
	.byte	8,2,35,24,12
	.byte	'stackmax',0
	.word	802
	.byte	8,2,35,32,12
	.byte	'stackbudget',0
	.word	802
	.byte	8,2,35,40,0,10
	.byte	'Os_MeterInfoType',0,5,202,2,3
	.word	1530
	.byte	9
	.word	1530
	.byte	10
	.byte	'Os_MeterInfoRefType',0,5,203,2,50
	.word	1728
	.byte	10
	.byte	'EventMaskType',0,5,206,2,15
	.word	297
	.byte	10
	.byte	'Os_imaskType',0,5,211,2,16
	.word	147
	.byte	16
	.byte	'Os_ISRDynType_s',0,5,213,2,16,48,12
	.byte	'meter',0
	.word	1530
	.byte	48,2,35,0,0,10
	.byte	'Os_ISRDynType',0,5,215,2,3
	.word	1807
	.byte	9
	.word	1807
	.byte	22
	.word	1868
	.byte	16
	.byte	'Os_ISRType_s',0,5,216,2,16,24,12
	.byte	'entry_function',0
	.word	895
	.byte	4,2,35,0,12
	.byte	'dynamic',0
	.word	1873
	.byte	4,2,35,4,12
	.byte	'imask',0
	.word	147
	.byte	4,2,35,8,12
	.byte	'stackbudget',0
	.word	802
	.byte	8,2,35,12,12
	.byte	'access',0
	.word	297
	.byte	1,2,35,20,12
	.byte	'application',0
	.word	297
	.byte	1,2,35,21,0,10
	.byte	'Os_ISRType',0,5,223,2,3
	.word	1878
	.byte	9
	.word	887
	.byte	22
	.word	1878
	.byte	9
	.word	2037
	.byte	10
	.byte	'ISRType',0,5,224,2,46
	.word	2042
	.byte	10
	.byte	'Os_bitmask',0,5,239,2,22
	.word	147
	.byte	10
	.byte	'Os_pset0Type',0,5,240,2,20
	.word	147
	.byte	10
	.byte	'Os_pset1Type',0,5,241,2,20
	.word	147
	.byte	10
	.byte	'Os_pset2Type',0,5,242,2,20
	.word	147
	.byte	23,5,243,2,9,4,12
	.byte	'p0',0
	.word	147
	.byte	4,2,35,0,12
	.byte	'p1',0
	.word	147
	.byte	4,2,35,0,12
	.byte	'p2',0
	.word	147
	.byte	4,2,35,0,0,10
	.byte	'Os_psetType',0,5,247,2,3
	.word	2150
	.byte	23,5,249,2,9,4,12
	.byte	't0',0
	.word	147
	.byte	4,2,35,0,12
	.byte	't1',0
	.word	147
	.byte	4,2,35,0,12
	.byte	't2',0
	.word	147
	.byte	4,2,35,0,0,10
	.byte	'Os_tpmaskType',0,5,253,2,3
	.word	2214
	.byte	10
	.byte	'Os_ActivationCountType',0,5,254,2,23
	.word	297
	.byte	16
	.byte	'Os_TaskDynType_s',0,5,128,3,16,120,12
	.byte	'terminate_jump_buf',0
	.word	751
	.byte	68,2,35,0,12
	.byte	'meter',0
	.word	1530
	.byte	48,2,35,68,12
	.byte	'activation_count',0
	.word	297
	.byte	1,2,35,116,0,10
	.byte	'Os_TaskDynType',0,5,132,3,3
	.word	2312
	.byte	13,68
	.word	720
	.byte	14,0,0,9
	.word	2312
	.byte	22
	.word	2438
	.byte	16
	.byte	'Os_TaskType_s',0,5,134,3,16,40,12
	.byte	'dynamic',0
	.word	2443
	.byte	4,2,35,0,12
	.byte	'entry_function',0
	.word	895
	.byte	4,2,35,4,12
	.byte	'pset',0
	.word	2150
	.byte	4,2,35,8,12
	.byte	'base_tpmask',0
	.word	2214
	.byte	4,2,35,12,12
	.byte	'tpmask',0
	.word	2214
	.byte	4,2,35,16,12
	.byte	'core_id',0
	.word	328
	.byte	2,2,35,20,12
	.byte	'index',0
	.word	147
	.byte	4,2,35,24,12
	.byte	'stackbudget',0
	.word	802
	.byte	8,2,35,28,12
	.byte	'activation_count',0
	.word	297
	.byte	1,2,35,36,12
	.byte	'access',0
	.word	297
	.byte	1,2,35,37,12
	.byte	'application',0
	.word	297
	.byte	1,2,35,38,0,10
	.byte	'Os_TaskType',0,5,146,3,3
	.word	2448
	.byte	22
	.word	2448
	.byte	9
	.word	2698
	.byte	10
	.byte	'TaskType',0,5,147,3,47
	.word	2703
	.byte	24
	.byte	'Os_TaskStateType',0,5,155,3,6,4,18
	.byte	'SUSPENDED',0,0,18
	.byte	'READY',0,1,18
	.byte	'WAITING',0,2,18
	.byte	'RUNNING',0,3,0,10
	.byte	'TaskStateType',0,5,156,3,31
	.word	2726
	.byte	23,5,167,3,3,4,12
	.byte	'tpmask',0
	.word	2214
	.byte	4,2,35,0,0,16
	.byte	'Os_ResourceDynType_s',0,5,166,3,16,4,12
	.byte	'saved_priority',0
	.word	2813
	.byte	4,2,35,0,0,10
	.byte	'Os_ResourceDynType',0,5,170,3,3
	.word	2836
	.byte	9
	.word	2836
	.byte	22
	.word	2916
	.byte	16
	.byte	'Os_ResourceType_s',0,5,171,3,16,12,12
	.byte	'dynamic',0
	.word	2921
	.byte	4,2,35,0,12
	.byte	'tpmask',0
	.word	2214
	.byte	4,2,35,4,12
	.byte	'access',0
	.word	297
	.byte	1,2,35,8,0,10
	.byte	'Os_ResourceType',0,5,175,3,3
	.word	2926
	.byte	11,5,181,3,9,12,12
	.byte	'maxallowedvalue',0
	.word	147
	.byte	4,2,35,0,12
	.byte	'ticksperbase',0
	.word	147
	.byte	4,2,35,4,12
	.byte	'mincycle',0
	.word	147
	.byte	4,2,35,8,0,10
	.byte	'AlarmBaseType',0,5,185,3,3
	.word	3025
	.byte	11,5,206,3,9,8,12
	.byte	'Running',0
	.word	297
	.byte	1,2,35,0,12
	.byte	'Pending',0
	.word	297
	.byte	1,2,35,1,12
	.byte	'Delay',0
	.word	147
	.byte	4,2,35,4,0,10
	.byte	'Os_CounterStatusType',0,5,210,3,3
	.word	3120
	.byte	25
	.word	297
	.byte	1,1,9
	.word	3206
	.byte	10
	.byte	'Os_CounterIncrAdvType',0,5,217,3,22
	.word	3213
	.byte	16
	.byte	's_swd',0,5,222,3,12,4,12
	.byte	'count',0
	.word	147
	.byte	4,2,35,0,0,23,5,221,3,3,4,12
	.byte	'sw',0
	.word	3249
	.byte	4,2,35,0,0,16
	.byte	'Os_CounterDynType_s',0,5,220,3,16,4,12
	.byte	'type_dependent',0
	.word	3277
	.byte	4,2,35,0,0,10
	.byte	'Os_CounterDynType',0,5,226,3,3
	.word	3296
	.byte	9
	.word	3296
	.byte	22
	.word	3374
	.byte	16
	.byte	'Os_CounterType_s',0,5,227,3,16,28,12
	.byte	'dynamic',0
	.word	3379
	.byte	4,2,35,0,12
	.byte	'advincr',0
	.word	3218
	.byte	4,2,35,4,12
	.byte	'base',0
	.word	3025
	.byte	12,2,35,8,12
	.byte	'core',0
	.word	1476
	.byte	4,2,35,20,12
	.byte	'access',0
	.word	297
	.byte	1,2,35,24,12
	.byte	'application',0
	.word	297
	.byte	1,2,35,25,0,10
	.byte	'Os_CounterType',0,5,234,3,3
	.word	3384
	.byte	9
	.word	3206
	.byte	22
	.word	3384
	.byte	9
	.word	3536
	.byte	10
	.byte	'CounterType',0,5,235,3,52
	.word	3541
	.byte	24
	.byte	'Os_ScheduleTableStatusType',0,5,240,3,6,4,18
	.byte	'SCHEDULETABLE_STOPPED',0,0,18
	.byte	'SCHEDULETABLE_NEXT',0,1,18
	.byte	'SCHEDULETABLE_WAITING',0,2,18
	.byte	'SCHEDULETABLE_RUNNING',0,3,18
	.byte	'SCHEDULETABLE_RUNNING_AND_SYNCHRONOUS',0,4,0,10
	.byte	'ScheduleTableStatusType',0,5,241,3,41
	.word	3567
	.byte	22
	.word	.L77-.L62
	.byte	9
	.word	3767
	.byte	10
	.byte	'ScheduleTableType',0,5,128,4,58
	.word	3772
	.byte	16
	.byte	'Os_ScheduleTableDynType_s',0,5,130,4,16,16,12
	.byte	'match',0
	.word	147
	.byte	4,2,35,0,12
	.byte	'next',0
	.word	3777
	.byte	4,2,35,4,12
	.byte	'state',0
	.word	3567
	.byte	4,2,35,8,12
	.byte	'config',0
	.word	328
	.byte	2,2,35,12,0,9
	.word	3804
	.byte	22
	.word	3897
.L77:
	.byte	16
	.byte	'Os_ScheduleTableType_s',0,5,247,3,16,16,12
	.byte	'dynamic',0
	.word	3902
	.byte	4,2,35,0,12
	.byte	'counter',0
	.word	3546
	.byte	4,2,35,4,12
	.byte	'repeat',0
	.word	297
	.byte	1,2,35,8,12
	.byte	'config',0
	.word	328
	.byte	2,2,35,10,12
	.byte	'initial',0
	.word	297
	.byte	1,2,35,12,12
	.byte	'access',0
	.word	297
	.byte	1,2,35,13,12
	.byte	'application',0
	.word	297
	.byte	1,2,35,14,0,10
	.byte	'Os_ScheduleTableType',0,5,255,3,3
	.word	3907
	.byte	22
	.word	3907
	.byte	9
	.word	4087
	.byte	22
	.word	3384
	.byte	9
	.word	4097
	.byte	26
	.word	1200
	.byte	26
	.word	2150
	.byte	26
	.word	2047
	.byte	26
	.word	2708
	.byte	26
	.word	2214
	.byte	26
	.word	297
	.byte	26
	.word	2708
	.byte	16
	.byte	'Os_ControlledCoreType_s',0,5,251,6,16,112,12
	.byte	'TrapInfo',0
	.word	631
	.byte	8,2,35,0,12
	.byte	'lock_taskaccess',0
	.word	4107
	.byte	4,2,35,8,12
	.byte	'ReadyTasks',0
	.word	4112
	.byte	4,2,35,12,12
	.byte	'RunningISR',0
	.word	4117
	.byte	4,2,35,16,12
	.byte	'RunningTask',0
	.word	4122
	.byte	4,2,35,20,12
	.byte	'RunningTPMask',0
	.word	4127
	.byte	4,2,35,24,12
	.byte	'CurrentMeteredObject',0
	.word	1733
	.byte	4,2,35,28,12
	.byte	'IdleMeter',0
	.word	1530
	.byte	48,2,35,32,12
	.byte	'AppAccess',0
	.word	297
	.byte	1,2,35,80,12
	.byte	'AppOverride',0
	.word	4132
	.byte	1,2,35,81,12
	.byte	'GetStackValueAdjust',0
	.word	802
	.byte	8,2,35,84,12
	.byte	'InErrorHook',0
	.word	297
	.byte	1,2,35,92,12
	.byte	'ChainTaskRef',0
	.word	4137
	.byte	4,2,35,96,12
	.byte	'GetStackUsageAdjust',0
	.word	802
	.byte	8,2,35,100,12
	.byte	'InProtectionHook',0
	.word	297
	.byte	1,2,35,108,12
	.byte	'CoreIsActive',0
	.word	297
	.byte	1,2,35,109,12
	.byte	'InShutdownHook',0
	.word	297
	.byte	1,2,35,110,0,10
	.byte	'Os_ControlledCoreType',0,5,141,7,3
	.word	4142
	.byte	9
	.word	147
	.byte	22
	.word	1878
	.byte	9
	.word	4598
	.byte	22
	.word	2448
	.byte	9
	.word	4608
	.byte	9
	.word	1530
	.byte	16
	.byte	'Os_AnyCoreType_s',0,5,151,7,16,96,12
	.byte	'DisableAllImask',0
	.word	147
	.byte	4,2,35,0,12
	.byte	'SuspendAllImask',0
	.word	147
	.byte	4,2,35,4,12
	.byte	'SuspendOSImask',0
	.word	147
	.byte	4,2,35,8,12
	.byte	'DisableAllCount',0
	.word	147
	.byte	4,2,35,12,12
	.byte	'SuspendAllCount',0
	.word	147
	.byte	4,2,35,16,12
	.byte	'SuspendOSCount',0
	.word	147
	.byte	4,2,35,20,12
	.byte	'RestartJumpBuf',0
	.word	751
	.byte	68,2,35,24,12
	.byte	'Restartable',0
	.word	297
	.byte	1,2,35,92,0,10
	.byte	'Os_AnyCoreType',0,5,160,7,3
	.word	4623
	.byte	10
	.byte	'unsigned_int',0,6,116,22
	.word	147
	.byte	17,7,31,9,4,18
	.byte	'MEMIF_JOB_OK',0,0,18
	.byte	'MEMIF_JOB_FAILED',0,1,18
	.byte	'MEMIF_JOB_PENDING',0,2,18
	.byte	'MEMIF_JOB_CANCELED',0,3,18
	.byte	'MEMIF_BLOCK_INCONSISTENT',0,4,18
	.byte	'MEMIF_BLOCK_INVALID',0,5,0,10
	.byte	'MemIf_JobResultType',0,7,39,2
	.word	4885
	.byte	17,7,41,9,4,18
	.byte	'MEMIF_MODE_SLOW',0,0,18
	.byte	'MEMIF_MODE_FAST',0,1,0,10
	.byte	'MemIf_ModeType',0,7,45,2
	.word	5043
	.byte	10
	.byte	'PduIdType',0,8,22,19
	.word	328
	.byte	10
	.byte	'PduLengthType',0,8,26,19
	.word	328
	.byte	17,9,113,9,4,18
	.byte	'TP_DATACONF',0,0,18
	.byte	'TP_DATARETRY',0,1,18
	.byte	'TP_CONFPENDING',0,2,0,10
	.byte	'TpDataStateType',0,9,118,3
	.word	5148
	.byte	10
	.byte	'Can_IdType',0,10,32,16
	.word	147
	.byte	10
	.byte	'Can_HwHandleType',0,10,43,16
	.word	328
	.byte	10
	.byte	'Can_TxObjPriorityClassType',0,11,219,3,16
	.word	147
	.byte	16
	.byte	'Can_TxHwObjectConfigType',0,11,231,3,16,8,12
	.byte	'MsgObjId',0
	.word	297
	.byte	1,2,35,0,12
	.byte	'HwControllerId',0
	.word	297
	.byte	1,2,35,1,12
	.byte	'TxObjPriorityClass',0
	.word	147
	.byte	4,2,35,4,0,10
	.byte	'Can_TxHwObjectConfigType',0,11,252,3,3
	.word	5304
	.byte	16
	.byte	'Can_RxHwObjectConfigType',0,11,129,4,16,12,12
	.byte	'MaskRef',0
	.word	147
	.byte	4,2,35,0,12
	.byte	'MsgId',0
	.word	147
	.byte	4,2,35,4,12
	.byte	'MsgObjId',0
	.word	297
	.byte	1,2,35,8,12
	.byte	'HwControllerId',0
	.word	297
	.byte	1,2,35,9,0,10
	.byte	'Can_RxHwObjectConfigType',0,11,147,4,3
	.word	5440
	.byte	13,4
	.word	297
	.byte	14,3,0,16
	.byte	'Can_ControllerMOMapConfigType',0,11,181,4,16,4,12
	.byte	'ControllerMOMap',0
	.word	5580
	.byte	4,2,35,0,0,10
	.byte	'Can_ControllerMOMapConfigType',0,11,184,4,3
	.word	5589
	.byte	16
	.byte	'Can_NPCRValueType',0,11,188,4,16,2,12
	.byte	'Can_NPCRValue',0
	.word	328
	.byte	2,2,35,0,0,10
	.byte	'Can_NPCRValueType',0,11,191,4,3
	.word	5690
	.byte	16
	.byte	'Can_17_MCanP_ControllerBaudrateConfigType',0,11,194,4,16,8,12
	.byte	'CanControllerBaudrate',0
	.word	147
	.byte	4,2,35,0,12
	.byte	'CanControllerBaudrateCfg',0
	.word	328
	.byte	2,2,35,4,0,10
	.byte	'Can_17_MCanP_ControllerBaudrateConfigType',0,11,198,4,3
	.word	5765
	.byte	22
	.word	5765
	.byte	9
	.word	5930
	.byte	16
	.byte	'Can_BaudrateConfigPtrType',0,11,201,4,16,4,12
	.byte	'Can_kBaudrateConfigPtr',0
	.word	5935
	.byte	4,2,35,0,0,10
	.byte	'Can_BaudrateConfigPtrType',0,11,204,4,3
	.word	5940
	.byte	16
	.byte	'Can_EventHandlingType',0,11,226,4,16,4,12
	.byte	'CanEventType',0
	.word	5580
	.byte	4,2,35,0,0,10
	.byte	'Can_EventHandlingType',0,11,229,4,3
	.word	6040
	.byte	10
	.byte	'Rte_TransformerErrorCode',0,12,130,1,15
	.word	297
	.byte	10
	.byte	'Rte_TransformerClass',0,12,131,1,15
	.word	297
	.byte	11,12,168,1,9,12,12
	.byte	'in',0
	.word	1476
	.byte	4,2,35,0,12
	.byte	'out',0
	.word	1476
	.byte	4,2,35,4,12
	.byte	'used',0
	.word	328
	.byte	2,2,35,8,12
	.byte	'lost_data',0
	.word	297
	.byte	1,2,35,10,0,10
	.byte	'Rte_QDynType',0,12,173,1,3
	.word	6186
	.byte	17,12,175,1,9,4,18
	.byte	'RTE_DRA',0,0,18
	.byte	'RTE_WOWP',0,1,18
	.byte	'RTE_TASK',0,2,18
	.byte	'RTE_ARE',0,3,18
	.byte	'RTE_EV',0,4,18
	.byte	'RTE_MSI',0,5,0,10
	.byte	'Rte_NotificationType',0,12,182,1,3
	.word	6273
	.byte	13,128,8
	.word	297
	.byte	14,255,7,0,10
	.byte	'Impl_NVM_DstPtrType_1024',0,13,50,15
	.word	6371
	.byte	10
	.byte	'CanIf_u32_impl',0,13,69,16
	.word	147
	.byte	10
	.byte	'CanIf_u16_impl',0,13,71,16
	.word	328
	.byte	10
	.byte	'CanIf_u8_impl',0,13,73,15
	.word	297
	.byte	10
	.byte	'CanIf_ControllerModeType_Enum_impl',0,13,88,15
	.word	297
	.byte	10
	.byte	'CanIf_PduModeType_Enum_impl',0,13,90,15
	.word	297
	.byte	11,13,92,9,2,12
	.byte	'DeviceMode',0
	.word	297
	.byte	1,2,35,0,12
	.byte	'ChannelMode',0
	.word	297
	.byte	1,2,35,1,0,10
	.byte	'CanIf_ControllerStateType_struct_impl',0,13,95,3
	.word	6562
	.byte	10
	.byte	'CanIf_NotifStatusType_Enum_impl',0,13,100,15
	.word	297
	.byte	10
	.byte	'CanSM_boolean_Impl',0,13,120,15
	.word	297
	.byte	10
	.byte	'CanSM_u8_Impl',0,13,123,15
	.word	297
	.byte	10
	.byte	'CanSM_BusOffRecoveryStateType_Enum_impl',0,13,128,1,15
	.word	297
	.byte	10
	.byte	'CanSM_NetworkModeStateType_Enum_impl',0,13,132,1,15
	.word	297
	.byte	10
	.byte	'CanSM_u16_Impl',0,13,136,1,16
	.word	328
	.byte	10
	.byte	'CanSM_TimerStateType_Enum_impl',0,13,138,1,15
	.word	297
	.byte	11,13,140,1,9,4,12
	.byte	'cntTick_u16',0
	.word	328
	.byte	2,2,35,0,12
	.byte	'stTimer',0
	.word	297
	.byte	1,2,35,2,0,10
	.byte	'CanSM_TimerConfig_tst_struct_impl',0,13,143,1,3
	.word	6903
	.byte	10
	.byte	'Com_impl_u16',0,13,154,1,16
	.word	328
	.byte	10
	.byte	'Com_impl_u8',0,13,157,1,15
	.word	297
	.byte	10
	.byte	'ComM_uint32_Impl',0,13,173,1,16
	.word	147
	.byte	10
	.byte	'ComM_uint16_Impl',0,13,175,1,16
	.word	328
	.byte	10
	.byte	'ComM_uint8_Impl',0,13,177,1,15
	.word	297
	.byte	10
	.byte	'ComM_bool_Impl',0,13,179,1,15
	.word	297
	.byte	11,13,181,1,9,24,12
	.byte	'ChannelState_e',0
	.word	147
	.byte	4,2,35,0,12
	.byte	'LightTimeoutCtr_u32',0
	.word	147
	.byte	4,2,35,4,12
	.byte	'MinFullComTimeoutCtr_u16',0
	.word	328
	.byte	2,2,35,8,12
	.byte	'ChannelMode_u8',0
	.word	297
	.byte	1,2,35,10,12
	.byte	'BusSmMode_u8',0
	.word	297
	.byte	1,2,35,11,12
	.byte	'UserRequestCtr_u8',0
	.word	297
	.byte	1,2,35,12,12
	.byte	'PassiveRequestState_u8',0
	.word	297
	.byte	1,2,35,13,12
	.byte	'PncRequestCtr_u8',0
	.word	297
	.byte	1,2,35,14,12
	.byte	'InhibitionReqStatus_u8',0
	.word	297
	.byte	1,2,35,15,12
	.byte	'NmNetworkRequestStatus_b',0
	.word	297
	.byte	1,2,35,16,12
	.byte	'DiagnosticRequestState_b',0
	.word	297
	.byte	1,2,35,17,12
	.byte	'CommunicationAllowed_b',0
	.word	297
	.byte	1,2,35,18,12
	.byte	'NmBusSleepIndicationStatus_b',0
	.word	297
	.byte	1,2,35,19,12
	.byte	'NmPrepareBusSleepIndicationStatus_b',0
	.word	297
	.byte	1,2,35,20,12
	.byte	'NmNetworkModeStatus_b',0
	.word	297
	.byte	1,2,35,21,0,10
	.byte	'ComM_ChannelStruct_Impl',0,13,197,1,3
	.word	7135
	.byte	11,13,206,1,9,10,12
	.byte	'WakeUpInhibitionCtr_u16',0
	.word	328
	.byte	2,2,35,0,12
	.byte	'LimitToNoComCtr_u16',0
	.word	328
	.byte	2,2,35,2,12
	.byte	'RequestedUserMode_t',0
	.word	297
	.byte	1,2,35,4,12
	.byte	'IndicatedUserMode_t',0
	.word	297
	.byte	1,2,35,5,12
	.byte	'numChannelsInFullCom_u8',0
	.word	297
	.byte	1,2,35,6,12
	.byte	'numChannelsInSilentCom_u8',0
	.word	297
	.byte	1,2,35,7,12
	.byte	'numChannelsInNoCom_u8',0
	.word	297
	.byte	1,2,35,8,0,10
	.byte	'ComM_UserStruct_Impl',0,13,214,1,3
	.word	7639
	.byte	10
	.byte	'Dcm_IOOperationResponseType',0,13,252,1,15
	.word	297
	.byte	10
	.byte	'Dcm_RequestDataOut_DcmDspRoutine_DriveVacuumPump_DcmDspRequestRoutineResultsOutSignal_0PrimitivType',0
	.byte	13,138,2,15
	.word	297
	.byte	10
	.byte	'Dcm_StartDataIn_DcmDspRoutine_DriveVacuumPump_DcmDspStartRoutineInSignalPrimitivType',0,13,146,2,15
	.word	297
	.byte	10
	.byte	'Dcm_StartDataOut_DcmDspRoutine_DriveVacuumPump_DcmDspStartRoutineOutSignalPrimitivType',0,13,150,2,15
	.word	297
	.byte	10
	.byte	'Dcm_StopDataOut_DcmDspRoutine_DriveVacuumPump_DcmDspStopRoutineOutSignalPrimitivType',0,13,154,2,15
	.word	297
	.byte	10
	.byte	'Rte_PimType_ASW_NVM_ASW_NVM_BlockNative_1024_Type',0,13,243,3,34
	.word	6382
	.byte	13,128,8
	.word	297
	.byte	14,255,7,0,10
	.byte	'Rte_PimType_ASW_NVM_ASW_NVM_BlockRedundant_1024_Type',0,13,246,3,34
	.word	6382
	.byte	10
	.byte	'Fls_LengthType',0,14,173,3,16
	.word	147
	.byte	16
	.byte	'Fls_JobStartType',0,14,175,3,16,1,27
	.byte	'Reserved1',0,1
	.word	297
	.byte	1,7,2,35,0,27
	.byte	'Write',0,1
	.word	297
	.byte	1,6,2,35,0,27
	.byte	'Erase',0,1
	.word	297
	.byte	1,5,2,35,0,27
	.byte	'Read',0,1
	.word	297
	.byte	1,4,2,35,0,27
	.byte	'Compare',0,1
	.word	297
	.byte	1,3,2,35,0,27
	.byte	'Reserved2',0,1
	.word	297
	.byte	3,0,2,35,0,0,10
	.byte	'Fls_JobStartType',0,14,183,3,3
	.word	8481
	.byte	10
	.byte	'Fls_17_Pmu_Job_Type',0,14,187,3,15
	.word	297
	.byte	9
	.word	297
	.byte	22
	.word	297
	.byte	9
	.word	8676
	.byte	13,2
	.word	297
	.byte	14,1,0,16
	.byte	'Fls_17_Pmu_StateType',0,14,198,3,16,48,12
	.byte	'FlsReadAddress',0
	.word	147
	.byte	4,2,35,0,12
	.byte	'FlsWriteAddress',0
	.word	147
	.byte	4,2,35,4,12
	.byte	'FlsEraseTimeoutCycleCount',0
	.word	147
	.byte	4,2,35,8,12
	.byte	'FlsWriteTimeoutCycleCount',0
	.word	147
	.byte	4,2,35,12,12
	.byte	'FlsReadLength',0
	.word	147
	.byte	4,2,35,16,12
	.byte	'FlsWriteLength',0
	.word	147
	.byte	4,2,35,20,12
	.byte	'FlsReadBufferPtr',0
	.word	8671
	.byte	4,2,35,24,12
	.byte	'FlsWriteBufferPtr',0
	.word	8681
	.byte	4,2,35,28,12
	.byte	'FlsJobResult',0
	.word	4885
	.byte	4,2,35,32,12
	.byte	'FlsMode',0
	.word	5043
	.byte	4,2,35,36,12
	.byte	'NotifCaller',0
	.word	297
	.byte	1,2,35,40,12
	.byte	'JobStarted',0
	.word	8481
	.byte	1,2,35,41,12
	.byte	'FlsJobType',0
	.word	8686
	.byte	2,2,35,42,12
	.byte	'FlsOper',0
	.word	297
	.byte	1,2,35,44,12
	.byte	'FlsTimeoutErr',0
	.word	297
	.byte	1,2,35,45,12
	.byte	'FlsTimeoutControl',0
	.word	297
	.byte	1,2,35,46,0,10
	.byte	'Fls_17_Pmu_StateType',0,14,130,4,3
	.word	8695
	.byte	10
	.byte	'Fls_NotifFunctionPtrType',0,14,137,4,16
	.word	890
	.byte	22
	.word	147
	.byte	9
	.word	9173
	.byte	20,1,1,21
	.word	147
	.byte	21
	.word	147
	.byte	21
	.word	9178
	.byte	21
	.word	297
	.byte	0,9
	.word	9183
	.byte	10
	.byte	'Fls_WriteCmdPtrType',0,14,139,4,16
	.word	9207
	.byte	20,1,1,21
	.word	147
	.byte	0,9
	.word	9241
	.byte	10
	.byte	'Fls_EraseCmdPtrType',0,14,144,4,16
	.word	9250
	.byte	17,15,122,9,4,18
	.byte	'FEE_NO_ORDER',0,0,18
	.byte	'FEE_READ_ORDER',0,1,18
	.byte	'FEE_WRITE_ORDER',0,2,18
	.byte	'FEE_INVALIDATE_ORDER',0,3,18
	.byte	'FEE_MAINTAIN_ORDER',0,4,18
	.byte	'FEE_FORCED_READ_ORDER',0,5,0,10
	.byte	'Fee_HlMode_ten',0,15,132,1,2
	.word	9284
	.byte	17,1,147,1,9,4,18
	.byte	'FEE_NORMAL_PRIO_E',0,0,18
	.byte	'FEE_HIGH_PRIO_E',0,1,0,10
	.byte	'Fee_HlPriority_ten',0,1,151,1,2
	.word	9432
	.byte	17,1,246,1,9,4,18
	.byte	'FEE_SECTOR_STATE_UNDEF_E',0,0,18
	.byte	'FEE_SECTOR_ERASED_E',0,1,18
	.byte	'FEE_SECTOR_USED_E',0,2,18
	.byte	'FEE_SECTOR_FULL_E',0,3,18
	.byte	'FEE_SECTOR_REQUEST2ERASE_E',0,4,18
	.byte	'FEE_SECTOR_CONSIDERED_E',0,13,0,10
	.byte	'Fee_SectorState_ten',0,1,254,1,2
	.word	9505
	.byte	17,1,210,2,9,4,18
	.byte	'FEE_LL_MARKER_INIT_E',0,0,18
	.byte	'FEE_LL_MARKER_BLK_CHK_E',0,1,18
	.byte	'FEE_LL_MARKER_BLK_CHK_WAIT_E',0,2,18
	.byte	'FEE_LL_MARKER_BLK_CHK_ERROR_E',0,3,18
	.byte	'FEE_LL_MARKER_BLK_CHK_FINISHED_E',0,4,18
	.byte	'FEE_LL_MARKER_WRITE_WAIT_E',0,5,18
	.byte	'FEE_LL_MARKER_WRITE_ERROR_E',0,6,18
	.byte	'FEE_LL_MARKER_VERIFY_E',0,7,18
	.byte	'FEE_LL_MARKER_VERIFY_WAIT_E',0,8,18
	.byte	'FEE_LL_MARKER_VERIFY_FINISHED_E',0,9,0,10
	.byte	'Fee_LLWrMarkerType_ten',0,1,222,2,2
	.word	9685
	.byte	17,1,225,2,9,4,18
	.byte	'FEE_HL_RDWR_BLK_INIT_E',0,0,18
	.byte	'FEE_HL_SEARCH_BLK_HDR_E',0,1,18
	.byte	'FEE_HL_READ_BLK_HDR_WAIT_E',0,2,18
	.byte	'FEE_HL_CHECK_BLK_HDR_E',0,3,18
	.byte	'FEE_HL_CALC_BLK_CS_E',0,4,18
	.byte	'FEE_HL_CHECK_BLK_CS_E',0,5,18
	.byte	'FEE_HL_RD_DATA_FROM_BLK_E',0,6,18
	.byte	'FEE_HL_COMP_BLK_E',0,7,18
	.byte	'FEE_HL_WR_BLK_E',0,8,0,10
	.byte	'Fee_HLRdWrBlockType_ten',0,1,243,2,2
	.word	10019
	.byte	17,1,246,2,9,4,18
	.byte	'FEE_LL_WR_BLK_INIT_E',0,0,18
	.byte	'FEE_LL_WR_WRITEHEADER_E',0,1,18
	.byte	'FEE_LL_WR_SIZECHECK_HSR_E',0,2,18
	.byte	'FEE_LL_WR_WRITEHEADER_WAIT_E',0,3,18
	.byte	'FEE_LL_WR_VERIFYHEADER_E',0,4,18
	.byte	'FEE_LL_WR_VERIFYHEADER_WAIT_E',0,5,18
	.byte	'FEE_LL_WR_VERIFYHEADER_ERROR_E',0,6,18
	.byte	'FEE_LL_WR_WRITEDATA_SEC_A_E',0,7,18
	.byte	'FEE_LL_WR_WAIT_WRITEDATA_SEC_A_E',0,8,18
	.byte	'FEE_LL_WR_WRITE_ERROR_E',0,9,18
	.byte	'FEE_LL_WR_WRITE_FULL_MARKER_E',0,10,18
	.byte	'FEE_LL_WR_ERASE_SECTOR_E',0,11,18
	.byte	'FEE_LL_WR_WRITE_USED_MARKER_E',0,12,18
	.byte	'FEE_LL_WR_WRITE_START_MARKER_E',0,13,18
	.byte	'FEE_LL_WR_VERIFY_BLK_E',0,14,18
	.byte	'FEE_LL_WR_WRITEHDRPG2_E',0,15,18
	.byte	'FEE_LL_WR_WAIT_WRITEHDRPG2_E',0,16,0,10
	.byte	'Fee_LLWrBlockType_ten',0,1,162,3,2
	.word	10277
	.byte	17,1,165,3,9,4,18
	.byte	'FEE_LL_CMP_BLK_INIT_E',0,0,18
	.byte	'FEE_LL_CMP_HEADER_E',0,1,18
	.byte	'FEE_LL_CMP_WAIT_HEADER_E',0,2,18
	.byte	'FEE_LL_CMP_CHECK_OVERLAP_E',0,3,18
	.byte	'FEE_LL_CMP_DATA_SEC_A_E',0,4,18
	.byte	'FEE_LL_CMP_WAIT_DATA_SEC_A_E',0,5,18
	.byte	'FEE_LL_CMP_FINISHED_E',0,6,0,10
	.byte	'Fee_LLCmpBlkType_ten',0,1,174,3,2
	.word	10812
	.byte	17,1,177,3,9,4,18
	.byte	'FEE_LL_CPY_BLK_INIT_E',0,0,18
	.byte	'FEE_LL_CPY_BLOCK_START_E',0,1,18
	.byte	'FEE_LL_CPY_BLOCK_WAIT_E',0,2,18
	.byte	'FEE_LL_CPY_BLOCK_ERROR_E',0,3,18
	.byte	'FEE_LL_CPY_BLOCK_FINISHED_E',0,4,0,10
	.byte	'Fee_LLCpyBlkType_ten',0,1,184,3,2
	.word	11032
	.byte	17,1,187,3,9,4,18
	.byte	'FEE_LL_CRC_BLK_INIT_E',0,0,18
	.byte	'FEE_LL_CRC_RD_HD_PAGE_E',0,1,18
	.byte	'FEE_LL_CRC_RD_PAGE_E',0,2,18
	.byte	'FEE_LL_CRC_CHECK_OVERLAP_E',0,3,18
	.byte	'FEE_LL_CRC_RD_ROB_PAGE_E',0,4,18
	.byte	'FEE_LL_CRC_CHECK_OVERLAP_ROB_E',0,5,18
	.byte	'FEE_LL_CRC_RD_ROB_PAGE_WAIT_E',0,6,18
	.byte	'FEE_LL_CRC_RD_PAGE_WAIT_E',0,7,18
	.byte	'FEE_LL_CRC_RD_ERROR_E',0,8,0,10
	.byte	'Fee_LLCalcCrcBlkType_ten',0,1,200,3,2
	.word	11203
	.byte	17,1,203,3,9,4,18
	.byte	'FEE_LL_INIT_READ_E',0,0,18
	.byte	'FEE_LL_BLANK_CHECK_E',0,1,18
	.byte	'FEE_LL_BLANK_CHECK_WAIT_E',0,2,18
	.byte	'FEE_LL_READ_PAGE_E',0,3,18
	.byte	'FEE_LL_WAIT_READ_PAGE_E',0,4,18
	.byte	'FEE_LL_READ_ERROR_E',0,5,18
	.byte	'FEE_LL_READ_FINISHED_E',0,6,0,10
	.byte	'Fee_LLRdStateType_ten',0,1,223,3,3
	.word	11490
	.byte	17,1,226,3,9,4,18
	.byte	'FEE_LL_INIT_BLANK_CHECK_E',0,0,18
	.byte	'FEE_LL_PERFORM_BLANK_CHECK_E',0,1,18
	.byte	'FEE_LL_WAIT_PERFORM_BLANK_CHECK_E',0,2,18
	.byte	'FEE_LL_BLANK_CHECK_ERROR_E',0,3,18
	.byte	'FEE_LL_BLANK_CHECK_FINISHED_E',0,4,0,10
	.byte	'Fee_LLBlankCheckType_ten',0,1,233,3,3
	.word	11694
	.byte	17,1,236,3,9,4,18
	.byte	'FEE_LL_FIND_CURRENT_SECTOR_E',0,0,18
	.byte	'FEE_LL_FIND_LAST_HEADER_E',0,1,18
	.byte	'FEE_LL_FINISHED_E',0,2,0,10
	.byte	'Fee_LLFndEmptyPgeType_ten',0,1,249,3,2
	.word	11891
	.byte	17,1,252,3,9,4,18
	.byte	'FEE_LL_SEARCHBLK_INIT_E',0,0,18
	.byte	'FEE_LL_SEARCHBLK_BLK_HEADER_E',0,1,0,10
	.byte	'Fee_LLSearchBlkHdrType_ten',0,1,128,4,2
	.word	12012
	.byte	17,1,132,4,9,4,18
	.byte	'FEE_LL_BLD_UP_CACHE_INIT_E',0,0,18
	.byte	'FEE_LL_BLD_UP_CACHE_READ_E',0,1,0,10
	.byte	'Fee_LLBuildUpCache_ten',0,1,136,4,2
	.word	12113
	.byte	17,1,139,4,9,4,18
	.byte	'FEE_LL_BLD_UP_CACHE_ALL_SECT_INIT_E',0,0,18
	.byte	'FEE_LL_BLD_UP_CACHE_ALL_SECT_DO_E',0,1,0,10
	.byte	'Fee_LLBuildUpCacheAllSect_ten',0,1,143,4,2
	.word	12210
	.byte	17,1,168,4,9,4,18
	.byte	'FEE_LL_REORG_INIT_E',0,0,18
	.byte	'FEE_LL_REORG_PREP_SEARCH_BLK_E',0,1,18
	.byte	'FEE_LL_REORG_SEARCH_BLK_E',0,2,18
	.byte	'FEE_LL_REORG_CHECK_BLOCK_CS_E',0,3,18
	.byte	'FEE_LL_REORG_REDUNDANT_BLK_CHK_E',0,4,18
	.byte	'FEE_LL_REORG_WRITE_BLOCK_E',0,5,18
	.byte	'FEE_LL_REORG_FINISHED_E',0,6,0,10
	.byte	'Fee_LLSecReorgType_ten',0,1,193,4,2
	.word	12330
	.byte	17,1,196,4,9,4,18
	.byte	'FEE_LL_REDUNDANT_CPY_CHK_INIT_E',0,0,18
	.byte	'FEE_LL_REDUNDANT_CPY_CHK_SEARCH_HDR_E',0,1,18
	.byte	'FEE_LL_REDUNDANT_CPY_CHK_BLK_CS_E',0,2,0,10
	.byte	'Fee_LLRedundantCpyChk_ten',0,1,201,4,2
	.word	12574
	.byte	17,1,204,4,9,4,18
	.byte	'FEE_LL_CPY_FLS2FLS_INIT_E',0,0,18
	.byte	'FEE_LL_CPY_FLS2FLS_READ_E',0,1,18
	.byte	'FEE_LL_CPY_FLS2FLS_WAIT_READ_E',0,2,18
	.byte	'FEE_LL_CPY_FLS2FLS_READ_ERROR_E',0,3,18
	.byte	'FEE_LL_CPY_FLS2FLS_HDRPG1_WRITE_E',0,4,18
	.byte	'FEE_LL_CPY_FLS2FLS_WAIT_HDRPG1_WRITE_E',0,5,18
	.byte	'FEE_LL_CPY_FLS2FLS_HDRPG1_WRITE_ERROR_E',0,6,18
	.byte	'FEE_LL_CPY_FLS2FLS_HDRPG1_VERIFY_E',0,7,18
	.byte	'FEE_LL_CPY_FLS2FLS_WAIT_HDRPG1_VERIFY_E',0,8,18
	.byte	'FEE_LL_CPY_FLS2FLS_HDRPG1_VERIFY_ERROR_E',0,9,18
	.byte	'FEE_LL_CPY_FLS2FLS_WRITE_E',0,10,18
	.byte	'FEE_LL_CPY_FLS2FLS_WAIT_WRITE_E',0,11,18
	.byte	'FEE_LL_CPY_FLS2FLS_WRITE_ERROR_E',0,12,18
	.byte	'FEE_LL_CPY_FLS2FLS_VERIFY_E',0,13,18
	.byte	'FEE_LL_CPY_FLS2FLS_WAIT_VERIFY_E',0,14,18
	.byte	'FEE_LL_CPY_FLS2FLS_VERIFY_ERROR_E',0,15,18
	.byte	'FEE_LL_CPY_FLS2FLS_HDRPG2_WRITE_E',0,16,18
	.byte	'FEE_LL_CPY_FLS2FLS_WAIT_HDRPG2_WRITE_E',0,17,18
	.byte	'FEE_LL_CPY_FLS2FLS_HDRPG2_WRITE_ERROR_E',0,18,18
	.byte	'FEE_LL_CPY_FLS2FLS_HDRPG2_VERIFY_E',0,19,18
	.byte	'FEE_LL_CPY_FLS2FLS_WAIT_HDRPG2_VERIFY_E',0,20,18
	.byte	'FEE_LL_CPY_FLS2FLS_HDRPG2_VERIFY_ERROR_E',0,21,18
	.byte	'FEE_LL_CPY_FLS2FLS_CHECK_ADR_OVERFLOW_E',0,22,18
	.byte	'FEE_LL_CPY_FLS2FLS_WRITE_FULL_MARKER_E',0,23,18
	.byte	'FEE_LL_CPY_FLS2FLS_ERASE_SECTOR_E',0,24,18
	.byte	'FEE_LL_CPY_FLS2FLS_WRITE_USED_MARKER_E',0,25,18
	.byte	'FEE_LL_CPY_FLS2FLS_WRITE_START_MARKER_E',0,26,0,10
	.byte	'Fee_LLCpyBlkFls2Fls_ten',0,1,133,5,2
	.word	12726
	.byte	11,1,163,5,9,116,12
	.byte	'xRdAddress',0
	.word	147
	.byte	4,2,35,0,12
	.byte	'xWrAddress',0
	.word	147
	.byte	4,2,35,4,12
	.byte	'xCmpAddress',0
	.word	147
	.byte	4,2,35,8,12
	.byte	'xCrcAddress',0
	.word	147
	.byte	4,2,35,12,12
	.byte	'xCpyAddress',0
	.word	147
	.byte	4,2,35,16,12
	.byte	'AdrHdSearchStart_u32',0
	.word	147
	.byte	4,2,35,20,12
	.byte	'xStartAddrNextSector_u32',0
	.word	147
	.byte	4,2,35,24,12
	.byte	'xHdPg2Address',0
	.word	147
	.byte	4,2,35,28,12
	.byte	'LastProgrammedAddress_u32',0
	.word	147
	.byte	4,2,35,32,12
	.byte	'LastValidHdrAddress_u32',0
	.word	147
	.byte	4,2,35,36,12
	.byte	'Fee_LLSecReorg_en',0
	.word	12330
	.byte	4,2,35,40,12
	.byte	'Fee_LLRedundantCpyChk_en',0
	.word	12574
	.byte	4,2,35,44,12
	.byte	'Fee_LLCpyBlkFls2Fls_en',0
	.word	12726
	.byte	4,2,35,48,12
	.byte	'Fee_HLWrBlock_en',0
	.word	10019
	.byte	4,2,35,52,12
	.byte	'Fee_HLMtBlock_en',0
	.word	10019
	.byte	4,2,35,56,12
	.byte	'Fee_LLWrBlock_en',0
	.word	10277
	.byte	4,2,35,60,12
	.byte	'Fee_HLRdBlock',0
	.word	10019
	.byte	4,2,35,64,12
	.byte	'Fee_LLNextUsedWrBlock_en',0
	.word	10277
	.byte	4,2,35,68,12
	.byte	'Fee_LLNextEraseWrBlock_en',0
	.word	10277
	.byte	4,2,35,72,12
	.byte	'Fee_LLCompBlk',0
	.word	10812
	.byte	4,2,35,76,12
	.byte	'Fee_LLCopyBlk_en',0
	.word	11032
	.byte	4,2,35,80,12
	.byte	'Fee_LLCalcCrcBlk_en',0
	.word	11203
	.byte	4,2,35,84,12
	.byte	'Fee_LLWrMarker_en',0
	.word	9685
	.byte	4,2,35,88,12
	.byte	'Fee_LLRdState_en',0
	.word	11490
	.byte	4,2,35,92,12
	.byte	'Fee_LLBlankCheckState_en',0
	.word	11694
	.byte	4,2,35,96,12
	.byte	'Fee_LLFindEmptyPageState_en',0
	.word	11891
	.byte	4,2,35,100,12
	.byte	'Fee_LLSearchBlkHdr_en',0
	.word	12012
	.byte	4,2,35,104,12
	.byte	'Fee_LLBuildUpCache_en',0
	.word	12113
	.byte	4,2,35,108,12
	.byte	'Fee_LLBuildUpCacheAllSect_en',0
	.word	12210
	.byte	4,2,35,112,0,10
	.byte	'Fee_RdWrOrder_tst',0,1,224,5,3
	.word	13772
	.byte	11,1,238,5,9,10,12
	.byte	'BytesAlrdyConsid_u16',0
	.word	328
	.byte	2,2,35,0,12
	.byte	'BytesAlrdyCompared_u16',0
	.word	328
	.byte	2,2,35,2,12
	.byte	'Bytes2Read_u16',0
	.word	328
	.byte	2,2,35,4,12
	.byte	'CompareResult_u8',0
	.word	297
	.byte	1,2,35,6,12
	.byte	'cntWriteRetry_u8',0
	.word	297
	.byte	1,2,35,7,12
	.byte	'cntCopies_u8',0
	.word	297
	.byte	1,2,35,8,0,10
	.byte	'Fee_GlobInfoWrBlock_tst',0,1,246,5,2
	.word	14629
	.byte	11,1,249,5,9,12,12
	.byte	'xRdAddress_u32',0
	.word	147
	.byte	4,2,35,0,12
	.byte	'xNumBytesAlrdyCopied_u16',0
	.word	328
	.byte	2,2,35,4,12
	.byte	'xNumBytesLeftToRdWr_u16',0
	.word	328
	.byte	2,2,35,6,12
	.byte	'xCntCopies_u8',0
	.word	297
	.byte	1,2,35,8,12
	.byte	'xFirstDataPgPgm_u8',0
	.word	297
	.byte	1,2,35,9,0,10
	.byte	'Fee_LLSecReorgStruct_tst',0,1,130,6,2
	.word	14829
	.byte	17,1,133,6,9,4,18
	.byte	'FEE_ERASESEC_IDLE_E',0,0,18
	.byte	'FEE_ERASESEC_CHECK_CACHE_E',0,1,18
	.byte	'FEE_ERASESEC_START_E',0,2,18
	.byte	'FEE_ERASESEC_DO_E',0,3,18
	.byte	'FEE_ERASESEC_WRITE_MARKER_E',0,4,18
	.byte	'FEE_ERASESEC_ERROR_E',0,5,0,10
	.byte	'Fee_LLEraseStateType_ten',0,1,141,6,2
	.word	15012
	.byte	11,1,144,6,9,8,12
	.byte	'EraseState_en',0
	.word	15012
	.byte	4,2,35,0,12
	.byte	'xPhySectorIdx_u8',0
	.word	297
	.byte	1,2,35,4,0,10
	.byte	'Fee_LLEraseOrderType_tst',0,1,148,6,2
	.word	15200
	.byte	13,3
	.word	297
	.byte	14,2,0,11,1,151,6,9,16,12
	.byte	'Preamble_au8',0
	.word	15290
	.byte	3,2,35,0,12
	.byte	'BlkStatus_u8',0
	.word	297
	.byte	1,2,35,3,12
	.byte	'FeeIndex_u16',0
	.word	328
	.byte	2,2,35,4,12
	.byte	'BlkLength_u16',0
	.word	328
	.byte	2,2,35,6,12
	.byte	'HdrCrc16_u16',0
	.word	328
	.byte	2,2,35,8,12
	.byte	'BlkCrc32_u32',0
	.word	147
	.byte	4,2,35,12,0,10
	.byte	'Fee_BlkHeader_tst',0,1,159,6,2
	.word	15299
	.byte	28
	.byte	'Fee_RdWrOrder_st',0,1,144,7,53
	.word	13772
	.byte	1,1,28
	.byte	'Fee_LLEraseOrder_st',0,1,146,7,53
	.word	15200
	.byte	1,1,28
	.byte	'Fee_GlobInfoWrBlock_st',0,1,149,7,53
	.word	14629
	.byte	1,1,28
	.byte	'Fee_LLSecReorgStruct_st',0,1,150,7,53
	.word	14829
	.byte	1,1,0
	.sdecl	'.debug_abbrev',debug
	.sect	'.debug_abbrev'
.L63:
	.byte	1,17,1,3,8,37,8,27,8,19,15,128,70,12,16,6,0,0,2,36,0,3,8,11,15,62,15,0,0,3,46,1,3,8,32,13,58,15,59,15
	.byte	57,15,73,19,54,15,39,12,0,0,4,5,0,3,8,58,15,59,15,57,15,73,19,0,0,5,11,0,0,0,6,46,1,49,19,0,0,7,5,0,49
	.byte	19,0,0,8,21,0,54,15,0,0,9,15,0,73,19,0,0,10,22,0,3,8,58,15,59,15,57,15,73,19,0,0,11,19,1,58,15,59,15,57
	.byte	15,11,15,0,0,12,13,0,3,8,73,19,11,15,56,9,0,0,13,1,1,11,15,73,19,0,0,14,33,0,47,15,0,0,15,21,0,54,15,39
	.byte	12,0,0,16,19,1,3,8,58,15,59,15,57,15,11,15,0,0,17,4,1,58,15,59,15,57,15,11,15,0,0,18,40,0,3,8,28,13,0
	.byte	0,19,59,0,3,8,0,0,20,21,1,54,15,39,12,0,0,21,5,0,73,19,0,0,22,38,0,73,19,0,0,23,23,1,58,15,59,15,57,15
	.byte	11,15,0,0,24,4,1,3,8,58,15,59,15,57,15,11,15,0,0,25,21,0,73,19,54,15,39,12,0,0,26,53,0,73,19,0,0,27,13
	.byte	0,3,8,11,15,73,19,13,15,12,15,56,9,0,0,28,52,0,3,8,58,15,59,15,57,15,73,19,63,12,60,12,0,0,0
	.sdecl	'.debug_line',debug
	.sect	'.debug_line'
.L64:
	.word	.L79-.L78
.L78:
	.half	3
	.word	.L81-.L80
.L80:
	.byte	2,1,-4,9,10,0,1,1,1,1,0,0,0,1,0
	.byte	'BSW\\src\\BSW\\Gen\\Rba_FeeFs1\\src\\rba_FeeFs1_Prv.h',0,0,0,0
	.byte	'BSW\\src\\BSW\\Gen\\Rba_FeeFs1\\src\\rba_FeeFs1_Cbk.c',0,0,0,0
	.byte	'.\\BSW\\src\\BSW\\Gen\\Platform\\Platform_Types.h',0,0,0,0
	.byte	'.\\Integration\\BSW\\Include\\Std_Types.h',0,0,0,0
	.byte	'.\\Targets\\TC275\\RTOS_T\\Gen\\inc\\Os.h',0,0,0,0
	.byte	'.\\Integration\\TargetIntegration\\TC275\\Include\\Mcal_TcLib.h',0,0,0,0
	.byte	'.\\BSW\\src\\BSW\\Gen\\MemIf\\api\\MemIf_Types.h',0,0,0,0
	.byte	'.\\BSW\\src\\BSW\\Gen\\ComStack\\ComStack_Cfg.h',0,0,0,0
	.byte	'.\\BSW\\src\\BSW\\Gen\\ComStack\\ComStack_Types.h',0,0,0,0
	.byte	'.\\Integration\\BSW\\Include\\Can_GeneralTypes.h',0,0,0,0
	.byte	'.\\Targets\\TC275\\MCAL\\MCAL_Modules\\Can_17_MCanP\\inc\\Can_17_MCanP.h',0,0,0,0
	.byte	'.\\RTE\\gen\\Rte.h',0,0,0,0
	.byte	'.\\RTE\\gen\\Rte_Type.h',0,0,0,0
	.byte	'.\\Targets\\TC275\\MCAL\\MCAL_Modules\\Fls\\inc\\Fls_17_Pmu.h',0,0,0,0
	.byte	'.\\BSW\\src\\BSW\\Gen\\Fee\\api\\Fee.h',0,0,0,0,0
.L81:
.L79:
	.sdecl	'.debug_info',debug,cluster('Fee_SwitchJobEndNotification')
	.sect	'.debug_info'
.L65:
	.word	211
	.half	3
	.word	.L66
	.byte	4,1
	.byte	'BSW\\src\\BSW\\Gen\\Rba_FeeFs1\\src\\rba_FeeFs1_Cbk.c',0
	.byte	'TASKING VX-toolset for TriCore: C compiler',0
	.byte	'C:\\Users\\HUR4HC\\Desktop\\Main_extract\\',0,12,1
	.word	.L68,.L67
	.byte	2
	.word	.L61
	.byte	3
	.byte	'Fee_SwitchJobEndNotification',0,1,70,22,1,1,1
	.word	.L58,.L75,.L57
	.byte	4
	.word	.L58,.L75
	.byte	0,0
	.sdecl	'.debug_abbrev',debug,cluster('Fee_SwitchJobEndNotification')
	.sect	'.debug_abbrev'
.L66:
	.byte	1,17,1,3,8,37,8,27,8,19,15,128,70,12,85,6,16,6,0,0,2,61,0,24,16,0,0,3,46,1,3,8,58,15,59,15,57,15,54,15
	.byte	39,12,63,12,17,1,18,1,64,6,0,0,4,11,0,17,1,18,1,0,0,0
	.sdecl	'.debug_line',debug,cluster('Fee_SwitchJobEndNotification')
	.sect	'.debug_line'
.L67:
	.word	.L83-.L82
.L82:
	.half	3
	.word	.L85-.L84
.L84:
	.byte	2,1,-4,9,10,0,1,1,1,1,0,0,0,1,0
	.byte	'BSW\\src\\BSW\\Gen\\Rba_FeeFs1\\src\\rba_FeeFs1_Cbk.c',0,0,0,0,0
.L85:
	.byte	5,8,7,0,5,2
	.word	.L58
	.byte	3,201,0,1,5,24,9
	.half	.L86-.L58
	.byte	1,5,5,9
	.half	.L87-.L86
	.byte	1,5,45,7,9
	.half	.L88-.L87
	.byte	3,3,1,5,43,9
	.half	.L89-.L88
	.byte	1,5,67,9
	.half	.L90-.L89
	.byte	1,5,9,9
	.half	.L2-.L90
	.byte	3,7,1,5,49,7,9
	.half	.L91-.L2
	.byte	3,3,1,5,47,9
	.half	.L92-.L91
	.byte	1,5,28,9
	.half	.L4-.L92
	.byte	3,4,1,5,9,9
	.half	.L93-.L4
	.byte	1,5,57,7,9
	.half	.L94-.L93
	.byte	3,3,1,5,55,9
	.half	.L95-.L94
	.byte	1,5,28,9
	.half	.L5-.L95
	.byte	3,13,1,5,9,9
	.half	.L96-.L5
	.byte	1,5,50,7,9
	.half	.L97-.L96
	.byte	3,3,1,5,48,9
	.half	.L98-.L97
	.byte	1,5,28,9
	.half	.L6-.L98
	.byte	3,4,1,5,9,9
	.half	.L99-.L6
	.byte	1,5,50,7,9
	.half	.L100-.L99
	.byte	3,3,1,5,48,9
	.half	.L101-.L100
	.byte	1,5,28,9
	.half	.L7-.L101
	.byte	3,4,1,5,50,9
	.half	.L102-.L7
	.byte	1,5,9,9
	.half	.L103-.L102
	.byte	1,5,50,7,9
	.half	.L104-.L103
	.byte	3,3,1,5,48,9
	.half	.L105-.L104
	.byte	1,5,28,9
	.half	.L8-.L105
	.byte	3,59,1,5,9,9
	.half	.L106-.L8
	.byte	1,5,49,7,9
	.half	.L107-.L106
	.byte	3,3,1,5,47,9
	.half	.L108-.L107
	.byte	1,5,28,9
	.half	.L9-.L108
	.byte	3,4,1,5,9,9
	.half	.L109-.L9
	.byte	1,5,49,7,9
	.half	.L110-.L109
	.byte	3,3,1,5,47,9
	.half	.L111-.L110
	.byte	1,5,28,9
	.half	.L10-.L111
	.byte	3,4,1,5,49,9
	.half	.L112-.L10
	.byte	1,5,9,9
	.half	.L113-.L112
	.byte	1,5,49,7,9
	.half	.L114-.L113
	.byte	3,3,1,5,47,9
	.half	.L115-.L114
	.byte	1,5,28,9
	.half	.L11-.L115
	.byte	3,5,1,5,49,9
	.half	.L116-.L11
	.byte	1,5,9,9
	.half	.L117-.L116
	.byte	1,5,49,7,9
	.half	.L118-.L117
	.byte	3,3,1,5,47,9
	.half	.L119-.L118
	.byte	1,5,28,9
	.half	.L12-.L119
	.byte	3,6,1,5,9,9
	.half	.L120-.L12
	.byte	1,5,49,7,9
	.half	.L121-.L120
	.byte	3,3,1,5,47,9
	.half	.L122-.L121
	.byte	1,5,28,9
	.half	.L13-.L122
	.byte	3,5,1,5,9,9
	.half	.L123-.L13
	.byte	1,5,16,7,9
	.half	.L124-.L123
	.byte	3,5,1,5,38,9
	.half	.L125-.L124
	.byte	1,5,59,9
	.half	.L126-.L125
	.byte	1,5,13,9
	.half	.L127-.L126
	.byte	1,5,59,7,9
	.half	.L128-.L127
	.byte	3,3,1,5,57,9
	.half	.L129-.L128
	.byte	1,5,46,9
	.half	.L15-.L129
	.byte	3,4,1,5,44,9
	.half	.L130-.L15
	.byte	1,5,28,9
	.half	.L14-.L130
	.byte	3,3,1,5,9,9
	.half	.L131-.L14
	.byte	1,5,16,7,9
	.half	.L132-.L131
	.byte	3,5,1,5,38,9
	.half	.L133-.L132
	.byte	1,5,59,9
	.half	.L134-.L133
	.byte	1,5,13,9
	.half	.L135-.L134
	.byte	1,5,59,7,9
	.half	.L136-.L135
	.byte	3,3,1,5,57,9
	.half	.L137-.L136
	.byte	1,5,46,9
	.half	.L17-.L137
	.byte	3,4,1,5,44,9
	.half	.L138-.L17
	.byte	1,5,28,9
	.half	.L16-.L138
	.byte	3,4,1,5,9,9
	.half	.L139-.L16
	.byte	1,5,52,7,9
	.half	.L140-.L139
	.byte	3,3,1,5,50,9
	.half	.L141-.L140
	.byte	1,5,28,9
	.half	.L18-.L141
	.byte	3,5,1,5,9,9
	.half	.L142-.L18
	.byte	1,5,52,7,9
	.half	.L143-.L142
	.byte	3,3,1,5,50,9
	.half	.L144-.L143
	.byte	1,5,12,9
	.half	.L19-.L144
	.byte	3,5,1,5,31,9
	.half	.L145-.L19
	.byte	1,5,9,9
	.half	.L146-.L145
	.byte	1,5,53,7,9
	.half	.L147-.L146
	.byte	3,14,1,5,51,9
	.half	.L148-.L147
	.byte	1,5,28,9
	.half	.L20-.L148
	.byte	3,5,1,5,9,9
	.half	.L149-.L20
	.byte	1,5,49,7,9
	.half	.L150-.L149
	.byte	3,3,1,5,47,9
	.half	.L151-.L150
	.byte	1,5,28,9
	.half	.L21-.L151
	.byte	3,4,1,5,9,9
	.half	.L152-.L21
	.byte	1,5,32,7,9
	.half	.L153-.L152
	.byte	3,5,1,5,13,9
	.half	.L154-.L153
	.byte	1,5,59,7,9
	.half	.L155-.L154
	.byte	3,3,1,5,57,9
	.half	.L156-.L155
	.byte	1,5,92,9
	.half	.L157-.L156
	.byte	1,5,59,9
	.half	.L23-.L157
	.byte	3,6,1,5,57,9
	.half	.L158-.L23
	.byte	1,5,28,9
	.half	.L22-.L158
	.byte	3,6,1,5,9,9
	.half	.L159-.L22
	.byte	1,5,55,7,9
	.half	.L160-.L159
	.byte	3,3,1,5,53,9
	.half	.L161-.L160
	.byte	1,5,28,9
	.half	.L25-.L161
	.byte	3,5,1,5,55,9
	.half	.L162-.L25
	.byte	1,5,9,9
	.half	.L163-.L162
	.byte	1,5,55,7,9
	.half	.L164-.L163
	.byte	3,3,1,5,53,9
	.half	.L165-.L164
	.byte	1,5,28,9
	.half	.L26-.L165
	.byte	3,6,1,5,55,9
	.half	.L166-.L26
	.byte	1,5,9,9
	.half	.L167-.L166
	.byte	1,5,55,7,9
	.half	.L168-.L167
	.byte	3,3,1,5,53,9
	.half	.L169-.L168
	.byte	1,5,28,9
	.half	.L27-.L169
	.byte	3,4,1,5,55,9
	.half	.L170-.L27
	.byte	1,5,9,9
	.half	.L171-.L170
	.byte	1,5,17,7,9
	.half	.L172-.L171
	.byte	3,4,1,5,40,9
	.half	.L173-.L172
	.byte	1,5,13,9
	.half	.L174-.L173
	.byte	1,5,59,7,9
	.half	.L175-.L174
	.byte	3,3,1,5,57,9
	.half	.L176-.L175
	.byte	1,5,85,9
	.half	.L177-.L176
	.byte	1,5,59,9
	.half	.L29-.L177
	.byte	3,5,1,5,57,9
	.half	.L178-.L29
	.byte	1,5,62,9
	.half	.L179-.L178
	.byte	3,2,1,5,60,9
	.half	.L180-.L179
	.byte	1,5,28,9
	.half	.L28-.L180
	.byte	3,6,1,5,55,9
	.half	.L181-.L28
	.byte	1,5,9,9
	.half	.L182-.L181
	.byte	1,5,55,7,9
	.half	.L183-.L182
	.byte	3,4,1,5,53,9
	.half	.L184-.L183
	.byte	1,5,28,9
	.half	.L31-.L184
	.byte	3,5,1,5,55,9
	.half	.L185-.L31
	.byte	1,5,9,9
	.half	.L186-.L185
	.byte	1,5,55,7,9
	.half	.L187-.L186
	.byte	3,4,1,5,53,9
	.half	.L188-.L187
	.byte	1,5,1,9
	.half	.L3-.L188
	.byte	3,58,1,7,9
	.half	.L69-.L3
	.byte	0,1,1
.L83:
	.sdecl	'.debug_ranges',debug,cluster('Fee_SwitchJobEndNotification')
	.sect	'.debug_ranges'
.L68:
	.word	-1,.L58,0,.L69-.L58,0,0
	.sdecl	'.debug_info',debug,cluster('Fee_SwitchJobErrorNotification')
	.sect	'.debug_info'
.L70:
	.word	214
	.half	3
	.word	.L71
	.byte	4,1
	.byte	'BSW\\src\\BSW\\Gen\\Rba_FeeFs1\\src\\rba_FeeFs1_Cbk.c',0
	.byte	'TASKING VX-toolset for TriCore: C compiler',0
	.byte	'C:\\Users\\HUR4HC\\Desktop\\Main_extract\\',0,12,1
	.word	.L73,.L72
	.byte	2
	.word	.L61
	.byte	3
	.byte	'Fee_SwitchJobErrorNotification',0,1,222,3,22,1,1,1
	.word	.L60,.L76,.L59
	.byte	4
	.word	.L60,.L76
	.byte	0,0
	.sdecl	'.debug_abbrev',debug,cluster('Fee_SwitchJobErrorNotification')
	.sect	'.debug_abbrev'
.L71:
	.byte	1,17,1,3,8,37,8,27,8,19,15,128,70,12,85,6,16,6,0,0,2,61,0,24,16,0,0,3,46,1,3,8,58,15,59,15,57,15,54,15
	.byte	39,12,63,12,17,1,18,1,64,6,0,0,4,11,0,17,1,18,1,0,0,0
	.sdecl	'.debug_line',debug,cluster('Fee_SwitchJobErrorNotification')
	.sect	'.debug_line'
.L72:
	.word	.L190-.L189
.L189:
	.half	3
	.word	.L192-.L191
.L191:
	.byte	2,1,-4,9,10,0,1,1,1,1,0,0,0,1,0
	.byte	'BSW\\src\\BSW\\Gen\\Rba_FeeFs1\\src\\rba_FeeFs1_Cbk.c',0,0,0,0,0
.L192:
	.byte	5,8,7,0,5,2
	.word	.L60
	.byte	3,225,3,1,5,24,9
	.half	.L193-.L60
	.byte	1,5,5,9
	.half	.L194-.L193
	.byte	1,5,45,7,9
	.half	.L195-.L194
	.byte	3,3,1,5,43,9
	.half	.L196-.L195
	.byte	1,5,24,9
	.half	.L33-.L196
	.byte	3,4,1,5,5,9
	.half	.L197-.L33
	.byte	1,5,45,7,9
	.half	.L198-.L197
	.byte	3,3,1,5,43,9
	.half	.L199-.L198
	.byte	1,5,24,9
	.half	.L34-.L199
	.byte	3,13,1,5,5,9
	.half	.L200-.L34
	.byte	1,5,53,7,9
	.half	.L201-.L200
	.byte	3,3,1,5,51,9
	.half	.L202-.L201
	.byte	1,5,24,9
	.half	.L35-.L202
	.byte	3,4,1,5,5,9
	.half	.L203-.L35
	.byte	1,5,46,7,9
	.half	.L204-.L203
	.byte	3,3,1,5,44,9
	.half	.L205-.L204
	.byte	1,5,24,9
	.half	.L36-.L205
	.byte	3,4,1,5,5,9
	.half	.L206-.L36
	.byte	1,5,46,7,9
	.half	.L207-.L206
	.byte	3,3,1,5,44,9
	.half	.L208-.L207
	.byte	1,5,24,9
	.half	.L37-.L208
	.byte	3,4,1,5,46,9
	.half	.L209-.L37
	.byte	1,5,5,9
	.half	.L210-.L209
	.byte	1,5,46,7,9
	.half	.L211-.L210
	.byte	3,3,1,5,44,9
	.half	.L212-.L211
	.byte	1,5,24,9
	.half	.L38-.L212
	.byte	3,50,1,5,5,9
	.half	.L213-.L38
	.byte	1,5,45,7,9
	.half	.L214-.L213
	.byte	3,3,1,5,43,9
	.half	.L215-.L214
	.byte	1,5,24,9
	.half	.L39-.L215
	.byte	3,5,1,5,5,9
	.half	.L216-.L39
	.byte	1,5,45,7,9
	.half	.L217-.L216
	.byte	3,3,1,5,43,9
	.half	.L218-.L217
	.byte	1,5,25,9
	.half	.L40-.L218
	.byte	3,5,1,5,5,9
	.half	.L219-.L40
	.byte	1,5,9,7,9
	.half	.L220-.L219
	.byte	3,3,1,5,51,9
	.half	.L221-.L220
	.byte	1,5,49,9
	.half	.L222-.L221
	.byte	1,5,42,9
	.half	.L223-.L222
	.byte	3,3,1,5,40,9
	.half	.L224-.L223
	.byte	1,5,25,9
	.half	.L41-.L224
	.byte	3,4,1,5,5,9
	.half	.L225-.L41
	.byte	1,5,9,7,9
	.half	.L226-.L225
	.byte	3,3,1,5,51,9
	.half	.L227-.L226
	.byte	1,5,49,9
	.half	.L228-.L227
	.byte	1,5,42,9
	.half	.L229-.L228
	.byte	3,3,1,5,40,9
	.half	.L230-.L229
	.byte	1,5,24,9
	.half	.L42-.L230
	.byte	3,4,1,5,5,9
	.half	.L231-.L42
	.byte	1,5,48,7,9
	.half	.L232-.L231
	.byte	3,3,1,5,46,9
	.half	.L233-.L232
	.byte	1,5,24,9
	.half	.L43-.L233
	.byte	3,5,1,5,5,9
	.half	.L234-.L43
	.byte	1,5,48,7,9
	.half	.L235-.L234
	.byte	3,3,1,5,46,9
	.half	.L236-.L235
	.byte	1,5,9,9
	.half	.L44-.L236
	.byte	3,5,1,5,28,9
	.half	.L237-.L44
	.byte	1,5,5,9
	.half	.L238-.L237
	.byte	1,5,49,7,9
	.half	.L239-.L238
	.byte	3,14,1,5,47,9
	.half	.L240-.L239
	.byte	1,5,24,9
	.half	.L45-.L240
	.byte	3,5,1,5,5,9
	.half	.L241-.L45
	.byte	1,5,45,7,9
	.half	.L242-.L241
	.byte	3,3,1,5,43,9
	.half	.L243-.L242
	.byte	1,5,24,9
	.half	.L46-.L243
	.byte	3,4,1,5,5,9
	.half	.L244-.L46
	.byte	1,5,51,7,9
	.half	.L245-.L244
	.byte	3,3,1,5,49,9
	.half	.L246-.L245
	.byte	1,5,24,9
	.half	.L47-.L246
	.byte	3,6,1,5,5,9
	.half	.L247-.L47
	.byte	1,5,51,7,9
	.half	.L248-.L247
	.byte	3,3,1,5,49,9
	.half	.L249-.L248
	.byte	1,5,24,9
	.half	.L48-.L249
	.byte	3,6,1,5,51,9
	.half	.L250-.L48
	.byte	1,5,5,9
	.half	.L251-.L250
	.byte	1,5,51,7,9
	.half	.L252-.L251
	.byte	3,3,1,5,49,9
	.half	.L253-.L252
	.byte	1,5,24,9
	.half	.L49-.L253
	.byte	3,5,1,5,51,9
	.half	.L254-.L49
	.byte	1,5,5,9
	.half	.L255-.L254
	.byte	1,5,51,7,9
	.half	.L256-.L255
	.byte	3,3,1,5,49,9
	.half	.L257-.L256
	.byte	1,5,24,9
	.half	.L50-.L257
	.byte	3,4,1,5,51,9
	.half	.L258-.L50
	.byte	1,5,5,9
	.half	.L259-.L258
	.byte	1,5,51,7,9
	.half	.L260-.L259
	.byte	3,4,1,5,49,9
	.half	.L261-.L260
	.byte	1,5,24,9
	.half	.L51-.L261
	.byte	3,5,1,5,51,9
	.half	.L262-.L51
	.byte	1,5,5,9
	.half	.L263-.L262
	.byte	1,5,51,7,9
	.half	.L264-.L263
	.byte	3,4,1,5,49,9
	.half	.L265-.L264
	.byte	1,5,24,9
	.half	.L52-.L265
	.byte	3,5,1,5,51,9
	.half	.L266-.L52
	.byte	1,5,5,9
	.half	.L267-.L266
	.byte	1,5,51,7,9
	.half	.L268-.L267
	.byte	3,4,1,5,49,9
	.half	.L269-.L268
	.byte	1,5,25,9
	.half	.L53-.L269
	.byte	3,46,1,5,8,9
	.half	.L270-.L53
	.byte	1,5,117,7,9
	.half	.L271-.L270
	.byte	1,5,114,9
	.half	.L272-.L271
	.byte	1,5,45,7,9
	.half	.L54-.L272
	.byte	3,3,1,5,43,9
	.half	.L273-.L54
	.byte	1,5,24,9
	.half	.L55-.L273
	.byte	3,4,1,5,45,9
	.half	.L274-.L55
	.byte	1,5,5,9
	.half	.L275-.L274
	.byte	1,5,45,7,9
	.half	.L276-.L275
	.byte	3,3,1,5,43,9
	.half	.L277-.L276
	.byte	1,5,33,9
	.half	.L56-.L277
	.byte	3,30,1,5,1,9
	.half	.L278-.L56
	.byte	3,2,1,7,9
	.half	.L74-.L278
	.byte	0,1,1
.L190:
	.sdecl	'.debug_ranges',debug,cluster('Fee_SwitchJobErrorNotification')
	.sect	'.debug_ranges'
.L73:
	.word	-1,.L60,0,.L74-.L60,0,0
	.sdecl	'.debug_loc',debug,cluster('Fee_SwitchJobEndNotification')
	.sect	'.debug_loc'
.L57:
	.word	-1,.L58,0,.L75-.L58
	.half	2
	.byte	138,0
	.word	0,0
	.sdecl	'.debug_loc',debug,cluster('Fee_SwitchJobErrorNotification')
	.sect	'.debug_loc'
.L59:
	.word	-1,.L60,0,.L76-.L60
	.half	2
	.byte	138,0
	.word	0,0
	.sdecl	'.debug_frame',debug
	.sect	'.debug_frame'
.L279:
	.word	48
	.word	-1
	.byte	3,0,2,1,27,12,26,0,8,27,8,26,8,28,8,29,8,30,8,31,8,34,8,35,8,32,8,33,8,16,8,17,8,24,8,25,8,36,8,37,8,38
	.byte	8,39
	.sdecl	'.debug_frame',debug,cluster('Fee_SwitchJobEndNotification')
	.sect	'.debug_frame'
	.word	20
	.word	.L279,.L58,.L75-.L58
	.byte	8,19,8,21,8,22,8,23
	.sdecl	'.debug_frame',debug,cluster('Fee_SwitchJobErrorNotification')
	.sect	'.debug_frame'
	.word	12
	.word	.L279,.L60,.L76-.L60

; BSW\src\BSW\Gen\Rba_FeeFs1\src\rba_FeeFs1_Cbk.c	   801  #define FEE_STOP_SEC_CODE
; BSW\src\BSW\Gen\Rba_FeeFs1\src\rba_FeeFs1_Cbk.c	   802  #include "Fee_MemMap.h"
; BSW\src\BSW\Gen\Rba_FeeFs1\src\rba_FeeFs1_Cbk.c	   803  /* FEE_PRESENT == 1 */
; BSW\src\BSW\Gen\Rba_FeeFs1\src\rba_FeeFs1_Cbk.c	   804  #endif
; BSW\src\BSW\Gen\Rba_FeeFs1\src\rba_FeeFs1_Cbk.c	   805  /* 1 == FEE_PRV_CFG_SELECTED_FS */
; BSW\src\BSW\Gen\Rba_FeeFs1\src\rba_FeeFs1_Cbk.c	   806  #endif
; BSW\src\BSW\Gen\Rba_FeeFs1\src\rba_FeeFs1_Cbk.c	   807  
; BSW\src\BSW\Gen\Rba_FeeFs1\src\rba_FeeFs1_Cbk.c	   808  /*<BASDKey>
; BSW\src\BSW\Gen\Rba_FeeFs1\src\rba_FeeFs1_Cbk.c	   809  **********************************************************************************************************************
; BSW\src\BSW\Gen\Rba_FeeFs1\src\rba_FeeFs1_Cbk.c	   810  * $History__:$
; BSW\src\BSW\Gen\Rba_FeeFs1\src\rba_FeeFs1_Cbk.c	   811  **********************************************************************************************************************
; BSW\src\BSW\Gen\Rba_FeeFs1\src\rba_FeeFs1_Cbk.c	   812  </BASDKey>*/

	; Module end
